(lp0
(iSimulation.simulator.models.rectangle_obstacle
RectangleObstacle
p1
(dp2
S'geometry'
p3
(iSimulation.simulator.models.polygon
Polygon
p4
(dp5
S'vertexes'
p6
(lp7
(lp8
F0.4852313837968781
aF0.06310616782649263
aa(lp9
F0.4852313837968781
aF-0.06310616782649263
aa(lp10
F-0.4852313837968781
aF-0.06310616782649263
aa(lp11
F-0.4852313837968781
aF0.06310616782649263
aasS'bounding_circle'
p12
((lp13
F0.0
aF0.0
aF0.48931777429312606
tp14
sbsS'width'
p15
F0.9704627675937562
sS'pose'
p16
(iSimulation.simulator.models.pose
Pose
p17
(dp18
S'y'
p19
F-3.2300280710562963
sS'x'
p20
F-1.115514758095025
sS'theta'
p21
F1.0681987700371511
sbsS'global_geometry'
p22
(iSimulation.simulator.models.polygon
Polygon
p23
(dp24
g6
(lp25
(lp26
F-0.9370792048416193
aF-2.7744047204976034
aa(lp27
F-0.8264750101165966
aF-2.835201642954345
aa(lp28
F-1.2939503113484307
aF-3.685651421614989
aa(lp29
F-1.4045545060734534
aF-3.6248544991582476
aasg12
((lp30
F-1.115514758095025
aF-3.2300280710562963
aF0.4893177742931262
tp31
sbsS'height'
p32
F0.12621233565298526
sba(iSimulation.simulator.models.rectangle_obstacle
RectangleObstacle
p33
(dp34
g3
(iSimulation.simulator.models.polygon
Polygon
p35
(dp36
g6
(lp37
(lp38
F0.3695221548995565
aF0.18126365953731138
aa(lp39
F0.3695221548995565
aF-0.18126365953731138
aa(lp40
F-0.3695221548995565
aF-0.18126365953731138
aa(lp41
F-0.3695221548995565
aF0.18126365953731138
aasg12
((lp42
F0.0
aF0.0
aF0.4115861237098138
tp43
sbsg15
F0.739044309799113
sg16
(iSimulation.simulator.models.pose
Pose
p44
(dp45
g19
F3.86292840671074
sg20
F3.9091023986175215
sg21
F-2.7270670918506776
sbsg22
(iSimulation.simulator.models.polygon
Polygon
p46
(dp47
g6
(lp48
(lp49
F3.643880972016295
aF3.5481892574107516
aa(lp50
F3.4978710210272568
aF3.8800132337711286
aa(lp51
F4.174323825218748
aF4.177667556010729
aa(lp52
F4.320333776207786
aF3.845843579650351
aasg12
((lp53
F3.909102398617521
aF3.86292840671074
aF0.4115861237098142
tp54
sbsg32
F0.36252731907462277
sba(iSimulation.simulator.models.rectangle_obstacle
RectangleObstacle
p55
(dp56
g3
(iSimulation.simulator.models.polygon
Polygon
p57
(dp58
g6
(lp59
(lp60
F0.5088821959025644
aF0.7304609647091533
aa(lp61
F0.5088821959025644
aF-0.7304609647091533
aa(lp62
F-0.5088821959025644
aF-0.7304609647091533
aa(lp63
F-0.5088821959025644
aF0.7304609647091533
aasg12
((lp64
F0.0
aF0.0
aF0.8902439610974303
tp65
sbsg15
F1.017764391805129
sg16
(iSimulation.simulator.models.pose
Pose
p66
(dp67
g19
F3.049329762340193
sg20
F2.493656189524641
sg21
F2.5293891355944806
sbsg22
(iSimulation.simulator.models.polygon
Polygon
p68
(dp69
g6
(lp70
(lp71
F1.6574196997071282
aF2.7439728508937224
aa(lp72
F2.496970885342264
aF3.9395675525187945
aa(lp73
F3.3298926793421537
aF3.3546866737866634
aa(lp74
F2.490341493707018
aF2.1590919721615913
aasg12
((lp75
F2.493656189524641
aF3.049329762340193
aF0.8902439610974304
tp76
sbsg32
F1.4609219294183067
sba(iSimulation.simulator.models.rectangle_obstacle
RectangleObstacle
p77
(dp78
g3
(iSimulation.simulator.models.polygon
Polygon
p79
(dp80
g6
(lp81
(lp82
F0.2976877443492723
aF0.8748494564696696
aa(lp83
F0.2976877443492723
aF-0.8748494564696696
aa(lp84
F-0.2976877443492723
aF-0.8748494564696696
aa(lp85
F-0.2976877443492723
aF0.8748494564696696
aasg12
((lp86
F0.0
aF0.0
aF0.9241101474505266
tp87
sbsg15
F0.5953754886985446
sg16
(iSimulation.simulator.models.pose
Pose
p88
(dp89
g19
F2.1913673216018363
sg20
F-0.9808453390335189
sg21
F1.7973603926315969
sbsg22
(iSimulation.simulator.models.polygon
Polygon
p90
(dp91
g6
(lp92
(lp93
F-1.900206924976877
aF2.2849292738727645
aa(lp94
F-0.1952233842038824
aF2.6779654193279727
aa(lp95
F-0.06148375309016085
aF2.097805369330908
aa(lp96
F-1.7664672938631554
aF1.7047692238757
aasg12
((lp97
F-0.980845339033519
aF2.1913673216018363
aF0.9241101474505267
tp98
sbsg32
F1.7496989129393392
sba(iSimulation.simulator.models.rectangle_obstacle
RectangleObstacle
p99
(dp100
g3
(iSimulation.simulator.models.polygon
Polygon
p101
(dp102
g6
(lp103
(lp104
F1.1244502521798914
aF0.09199048252230302
aa(lp105
F1.1244502521798914
aF-0.09199048252230302
aa(lp106
F-1.1244502521798914
aF-0.09199048252230302
aa(lp107
F-1.1244502521798914
aF0.09199048252230302
aasg12
((lp108
F0.0
aF0.0
aF1.1282068154829181
tp109
sbsg15
F2.2489005043597827
sg16
(iSimulation.simulator.models.pose
Pose
p110
(dp111
g19
F0.028281267441434377
sg20
F1.209195511780165
sg21
F-2.432242248753181
sbsg22
(iSimulation.simulator.models.polygon
Polygon
p112
(dp113
g6
(lp114
(lp115
F0.4158965386011335
aF-0.7739203017761793
aa(lp116
F0.2960621918690456
aF-0.6343182787176351
aa(lp117
F2.0024944849591964
aF0.830482836659048
aa(lp118
F2.1223288316912843
aF0.6908808136005038
aasg12
((lp119
F1.209195511780165
aF0.028281267441434332
aF1.1282068154829183
tp120
sbsg32
F0.18398096504460604
sba(iSimulation.simulator.models.rectangle_obstacle
RectangleObstacle
p121
(dp122
g3
(iSimulation.simulator.models.polygon
Polygon
p123
(dp124
g6
(lp125
(lp126
F0.12737462900489455
aF0.8380465558302227
aa(lp127
F0.12737462900489455
aF-0.8380465558302227
aa(lp128
F-0.12737462900489455
aF-0.8380465558302227
aa(lp129
F-0.12737462900489455
aF0.8380465558302227
aasg12
((lp130
F0.0
aF0.0
aF0.8476711189211492
tp131
sbsg15
F0.2547492580097891
sg16
(iSimulation.simulator.models.pose
Pose
p132
(dp133
g19
F0.8539359055802882
sg20
F1.9020305356645277
sg21
F-0.9905129424844797
sbsg22
(iSimulation.simulator.models.polygon
Polygon
p134
(dp135
g6
(lp136
(lp137
F2.6727295363331534
aF1.2068797767856327
aa(lp138
F1.2710006065224586
aF0.2879433664245249
aa(lp139
F1.131331534995902
aF0.5009920343749437
aa(lp140
F2.5330604648065966
aF1.4199284447360516
aasg12
((lp141
F1.9020305356645277
aF0.8539359055802882
aF0.8476711189211492
tp142
sbsg32
F1.6760931116604454
sba(iSimulation.simulator.models.rectangle_obstacle
RectangleObstacle
p143
(dp144
g3
(iSimulation.simulator.models.polygon
Polygon
p145
(dp146
g6
(lp147
(lp148
F0.2672839888972996
aF0.5180662687859462
aa(lp149
F0.2672839888972996
aF-0.5180662687859462
aa(lp150
F-0.2672839888972996
aF-0.5180662687859462
aa(lp151
F-0.2672839888972996
aF0.5180662687859462
aasg12
((lp152
F0.0
aF0.0
aF0.582952304716813
tp153
sbsg15
F0.5345679777945992
sg16
(iSimulation.simulator.models.pose
Pose
p154
(dp155
g19
F2.3406498340512516
sg20
F-1.016325152575525
sg21
F-2.5301487509081944
sbsg22
(iSimulation.simulator.models.polygon
Polygon
p156
(dp157
g6
(lp158
(lp159
F-0.9377865028118012
aF1.7630123438656378
aa(lp160
F-1.5325787533009825
aF2.611418387086208
aa(lp161
F-1.0948638023392487
aF2.918287324236865
aa(lp162
F-0.5000715518500676
aF2.069881281016295
aasg12
((lp163
F-1.0163251525755248
aF2.3406498340512516
aF0.5829523047168133
tp164
sbsg32
F1.0361325375718924
sba(iSimulation.simulator.models.rectangle_obstacle
RectangleObstacle
p165
(dp166
g3
(iSimulation.simulator.models.polygon
Polygon
p167
(dp168
g6
(lp169
(lp170
F0.5881999223157274
aF0.4806053548868554
aa(lp171
F0.5881999223157274
aF-0.4806053548868554
aa(lp172
F-0.5881999223157274
aF-0.4806053548868554
aa(lp173
F-0.5881999223157274
aF0.4806053548868554
aasg12
((lp174
F0.0
aF0.0
aF0.7595792623276045
tp175
sbsg15
F1.1763998446314547
sg16
(iSimulation.simulator.models.pose
Pose
p176
(dp177
g19
F4.179043236773597
sg20
F-2.1802023509492687
sg21
F-2.6696064179784496
sbsg22
(iSimulation.simulator.models.polygon
Polygon
p178
(dp179
g6
(lp180
(lp181
F-2.485582374956567
aF3.4835551371662423
aa(lp182
F-2.9226028370576778
aF4.339673787990188
aa(lp183
F-1.8748223269419704
aF4.874531336380952
aa(lp184
F-1.4378018648408595
aF4.018412685557006
aasg12
((lp185
F-2.1802023509492687
aF4.179043236773597
aF0.7595792623276048
tp186
sbsg32
F0.9612107097737108
sba(iSimulation.simulator.models.rectangle_obstacle
RectangleObstacle
p187
(dp188
g3
(iSimulation.simulator.models.polygon
Polygon
p189
(dp190
g6
(lp191
(lp192
F0.7100746122852755
aF0.5646615690367659
aa(lp193
F0.7100746122852755
aF-0.5646615690367659
aa(lp194
F-0.7100746122852755
aF-0.5646615690367659
aa(lp195
F-0.7100746122852755
aF0.5646615690367659
aasg12
((lp196
F0.0
aF0.0
aF0.9072202833706633
tp197
sbsg15
F1.420149224570551
sg16
(iSimulation.simulator.models.pose
Pose
p198
(dp199
g19
F3.1201904694317495
sg20
F3.703921855562093
sg21
F2.6912870725065474
sbsg22
(iSimulation.simulator.models.polygon
Polygon
p200
(dp201
g6
(lp202
(lp203
F2.818867957933642
aF2.9208710251925214
aa(lp204
F3.3103953210342825
aF3.937616618500691
aa(lp205
F4.588975753190543
aF3.3195099136709776
aa(lp206
F4.0974483900899035
aF2.302764320362808
aasg12
((lp207
F3.703921855562093
aF3.1201904694317495
aF0.9072202833706636
tp208
sbsg32
F1.1293231380735318
sba(iSimulation.simulator.models.rectangle_obstacle
RectangleObstacle
p209
(dp210
g3
(iSimulation.simulator.models.polygon
Polygon
p211
(dp212
g6
(lp213
(lp214
F0.8576502882668361
aF0.28517178107615737
aa(lp215
F0.8576502882668361
aF-0.28517178107615737
aa(lp216
F-0.8576502882668361
aF-0.28517178107615737
aa(lp217
F-0.8576502882668361
aF0.28517178107615737
aasg12
((lp218
F0.0
aF0.0
aF0.903817991459749
tp219
sbsg15
F1.7153005765336722
sg16
(iSimulation.simulator.models.pose
Pose
p220
(dp221
g19
F-0.31511012793238213
sg20
F4.828501159463684
sg21
F-1.72299393044876
sbsg22
(iSimulation.simulator.models.polygon
Polygon
p222
(dp223
g6
(lp224
(lp225
F4.980347478147699
aF-1.2060813155632994
aa(lp226
F4.416596925140415
aF-1.1196111306868202
aa(lp227
F4.676654840779669
aF0.5758610596985352
aa(lp228
F5.240405393786953
aF0.4893908748220559
aasg12
((lp229
F4.828501159463684
aF-0.31511012793238213
aF0.903817991459749
tp230
sbsg32
F0.5703435621523147
sba(iSimulation.simulator.models.rectangle_obstacle
RectangleObstacle
p231
(dp232
g3
(iSimulation.simulator.models.polygon
Polygon
p233
(dp234
g6
(lp235
(lp236
F0.8713733006809414
aF0.09039050176734195
aa(lp237
F0.8713733006809414
aF-0.09039050176734195
aa(lp238
F-0.8713733006809414
aF-0.09039050176734195
aa(lp239
F-0.8713733006809414
aF0.09039050176734195
aasg12
((lp240
F0.0
aF0.0
aF0.8760490122985987
tp241
sbsg15
F1.7427466013618829
sg16
(iSimulation.simulator.models.pose
Pose
p242
(dp243
g19
F3.503290727692779
sg20
F-1.3902380299078638
sg21
F1.1917638521710385
sbsg22
(iSimulation.simulator.models.polygon
Polygon
p244
(dp245
g6
(lp246
(lp247
F-1.1517857839821495
aF4.346263086885139
aa(lp248
F-0.9838360600279397
aF4.27937017647819
aa(lp249
F-1.6286902758335782
aF2.6603183685004193
aa(lp250
F-1.796639999787788
aF2.7272112789073684
aasg12
((lp251
F-1.3902380299078638
aF3.5032907276927796
aF0.8760490122985992
tp252
sbsg32
F0.1807810035346839
sba(iSimulation.simulator.models.rectangle_obstacle
RectangleObstacle
p253
(dp254
g3
(iSimulation.simulator.models.polygon
Polygon
p255
(dp256
g6
(lp257
(lp258
F0.5624898449037365
aF0.3604021605645072
aa(lp259
F0.5624898449037365
aF-0.3604021605645072
aa(lp260
F-0.5624898449037365
aF-0.3604021605645072
aa(lp261
F-0.5624898449037365
aF0.3604021605645072
aasg12
((lp262
F0.0
aF0.0
aF0.6680453150493568
tp263
sbsg15
F1.124979689807473
sg16
(iSimulation.simulator.models.pose
Pose
p264
(dp265
g19
F-4.517650091336202
sg20
F-0.5703035185366084
sg21
F-1.9008714784612024
sbsg22
(iSimulation.simulator.models.polygon
Polygon
p266
(dp267
g6
(lp268
(lp269
F-0.4116674949719544
aF-5.166587033563249
aa(lp270
F-1.093561348936535
aF-4.93296417234545
aa(lp271
F-0.7289395421012625
aF-3.8687131491091558
aa(lp272
F-0.04704568813668197
aF-4.102336010326955
aasg12
((lp273
F-0.5703035185366084
aF-4.517650091336202
aF0.6680453150493569
tp274
sbsg32
F0.7208043211290144
sba(iSimulation.simulator.models.rectangle_obstacle
RectangleObstacle
p275
(dp276
g3
(iSimulation.simulator.models.polygon
Polygon
p277
(dp278
g6
(lp279
(lp280
F0.6397158937303229
aF0.6505612474714386
aa(lp281
F0.6397158937303229
aF-0.6505612474714386
aa(lp282
F-0.6397158937303229
aF-0.6505612474714386
aa(lp283
F-0.6397158937303229
aF0.6505612474714386
aasg12
((lp284
F0.0
aF0.0
aF0.9123959455207921
tp285
sbsg15
F1.2794317874606458
sg16
(iSimulation.simulator.models.pose
Pose
p286
(dp287
g19
F0.7345714491170532
sg20
F0.02302253506828089
sg21
F-0.06794681833198668
sbsg22
(iSimulation.simulator.models.polygon
Polygon
p288
(dp289
g6
(lp290
(lp291
F0.7054318480303636
aF1.3401983069968852
aa(lp292
F0.617092724439849
aF0.04207814842540791
aa(lp293
F-0.6593867778938018
aF0.12894459123722124
aa(lp294
F-0.5710476543032872
aF1.4270647498086984
aasg12
((lp295
F0.02302253506828089
aF0.7345714491170532
aF0.9123959455207921
tp296
sbsg32
F1.3011224949428772
sba(iSimulation.simulator.models.rectangle_obstacle
RectangleObstacle
p297
(dp298
g3
(iSimulation.simulator.models.polygon
Polygon
p299
(dp300
g6
(lp301
(lp302
F0.6832919569564396
aF0.5324175072747599
aa(lp303
F0.6832919569564396
aF-0.5324175072747599
aa(lp304
F-0.6832919569564396
aF-0.5324175072747599
aa(lp305
F-0.6832919569564396
aF0.5324175072747599
aasg12
((lp306
F0.0
aF0.0
aF0.8662310895448339
tp307
sbsg15
F1.3665839139128793
sg16
(iSimulation.simulator.models.pose
Pose
p308
(dp309
g19
F0.08578734008736873
sg20
F-2.5374581734921824
sg21
F-2.7525697802729097
sbsg22
(iSimulation.simulator.models.polygon
Polygon
p310
(dp311
g6
(lp312
(lp313
F-2.9677569333023763
aF-0.6660100247655807
aa(lp314
F-3.3716323285582614
aF0.3192606351637498
aa(lp315
F-2.1071594136819884
aF0.8375847049403182
aa(lp316
F-1.7032840184261033
aF-0.14768595498901238
aasg12
((lp317
F-2.5374581734921824
aF0.08578734008736874
aF0.8662310895448339
tp318
sbsg32
F1.0648350145495198
sba(iSimulation.simulator.models.rectangle_obstacle
RectangleObstacle
p319
(dp320
g3
(iSimulation.simulator.models.polygon
Polygon
p321
(dp322
g6
(lp323
(lp324
F0.24094272908291126
aF0.630164030073209
aa(lp325
F0.24094272908291126
aF-0.630164030073209
aa(lp326
F-0.24094272908291126
aF-0.630164030073209
aa(lp327
F-0.24094272908291126
aF0.630164030073209
aasg12
((lp328
F0.0
aF0.0
aF0.6746555443306084
tp329
sbsg15
F0.4818854581658225
sg16
(iSimulation.simulator.models.pose
Pose
p330
(dp331
g19
F4.1720359248742716
sg20
F-2.6278130589210305
sg21
F-3.12465422752125
sbsg22
(iSimulation.simulator.models.polygon
Polygon
p332
(dp333
g6
(lp334
(lp335
F-2.8580477479286714
aF3.53788129745791
aa(lp336
F-2.8793947007867073
aF4.798028561390229
aa(lp337
F-2.3975783699133895
aF4.806190552290633
aa(lp338
F-2.3762314170553536
aF3.546043288358314
aasg12
((lp339
F-2.6278130589210305
aF4.172035924874271
aF0.674655544330609
tp340
sbsg32
F1.260328060146418
sba(iSimulation.simulator.models.rectangle_obstacle
RectangleObstacle
p341
(dp342
g3
(iSimulation.simulator.models.polygon
Polygon
p343
(dp344
g6
(lp345
(lp346
F0.9564512053684797
aF0.05273989861919222
aa(lp347
F0.9564512053684797
aF-0.05273989861919222
aa(lp348
F-0.9564512053684797
aF-0.05273989861919222
aa(lp349
F-0.9564512053684797
aF0.05273989861919222
aasg12
((lp350
F0.0
aF0.0
aF0.9579041732643095
tp351
sbsg15
F1.9129024107369594
sg16
(iSimulation.simulator.models.pose
Pose
p352
(dp353
g19
F3.3642047315992327
sg20
F4.251068752984246
sg21
F-1.1065141623545944
sbsg22
(iSimulation.simulator.models.polygon
Polygon
p354
(dp355
g6
(lp356
(lp357
F4.72650651948626
aF2.532616290517494
aa(lp358
F4.632192472976183
aF2.4853844341454883
aa(lp359
F3.775630986482231
aF4.195793172680972
aa(lp360
F3.869945032992308
aF4.243025029052977
aasg12
((lp361
F4.251068752984246
aF3.3642047315992327
aF0.95790417326431
tp362
sbsg32
F0.10547979723838444
sba(iSimulation.simulator.models.rectangle_obstacle
RectangleObstacle
p363
(dp364
g3
(iSimulation.simulator.models.polygon
Polygon
p365
(dp366
g6
(lp367
(lp368
F0.5976964137643134
aF0.2979897166858924
aa(lp369
F0.5976964137643134
aF-0.2979897166858924
aa(lp370
F-0.5976964137643134
aF-0.2979897166858924
aa(lp371
F-0.5976964137643134
aF0.2979897166858924
aasg12
((lp372
F0.0
aF0.0
aF0.6678614184673791
tp373
sbsg15
F1.1953928275286267
sg16
(iSimulation.simulator.models.pose
Pose
p374
(dp375
g19
F-5.22678035634669
sg20
F-1.629902343522091
sg21
F-2.293530768863156
sbsg22
(iSimulation.simulator.models.polygon
Polygon
p376
(dp377
g6
(lp378
(lp379
F-1.8017491989585743
aF-5.87215430418922
aa(lp380
F-2.248733697411496
aF-5.477950875557575
aa(lp381
F-1.4580554880856076
aF-4.58140640850416
aa(lp382
F-1.011070989632686
aF-4.975609837135805
aasg12
((lp383
F-1.629902343522091
aF-5.22678035634669
aF0.6678614184673796
tp384
sbsg32
F0.5959794333717848
sba(iSimulation.simulator.models.rectangle_obstacle
RectangleObstacle
p385
(dp386
g3
(iSimulation.simulator.models.polygon
Polygon
p387
(dp388
g6
(lp389
(lp390
F0.27329842610842686
aF0.9994212962422598
aa(lp391
F0.27329842610842686
aF-0.9994212962422598
aa(lp392
F-0.27329842610842686
aF-0.9994212962422598
aa(lp393
F-0.27329842610842686
aF0.9994212962422598
aasg12
((lp394
F0.0
aF0.0
aF1.0361153203654032
tp395
sbsg15
F0.5465968522168537
sg16
(iSimulation.simulator.models.pose
Pose
p396
(dp397
g19
F1.2950104601235533
sg20
F0.2612122538036907
sg21
F-1.5540269474982233
sbsg22
(iSimulation.simulator.models.polygon
Polygon
p398
(dp399
g6
(lp400
(lp401
F1.2650758588376159
aF1.0385093498253835
aa(lp402
F-0.7334856908895411
aF1.0049915712232564
aa(lp403
F-0.7426513512302344
aF1.551511570421723
aa(lp404
F1.2559101984969223
aF1.58502934902385
aasg12
((lp405
F0.2612122538036907
aF1.2950104601235533
aF1.0361153203654032
tp406
sbsg32
F1.9988425924845197
sba(iSimulation.simulator.models.rectangle_obstacle
RectangleObstacle
p407
(dp408
g3
(iSimulation.simulator.models.polygon
Polygon
p409
(dp410
g6
(lp411
(lp412
F0.2827851526571004
aF0.28253952111013164
aa(lp413
F0.2827851526571004
aF-0.28253952111013164
aa(lp414
F-0.2827851526571004
aF-0.28253952111013164
aa(lp415
F-0.2827851526571004
aF0.28253952111013164
aasg12
((lp416
F0.0
aF0.0
aF0.39974494812622974
tp417
sbsg15
F0.5655703053142008
sg16
(iSimulation.simulator.models.pose
Pose
p418
(dp419
g19
F-4.628449183214067
sg20
F-2.7950611787355433
sg21
F-0.7623790195612008
sbsg22
(iSimulation.simulator.models.polygon
Polygon
p420
(dp421
g6
(lp422
(lp423
F-2.3954181744893708
aF-4.619421851961914
aa(lp424
F-2.7856865640480835
aF-5.0280841918806045
aa(lp425
F-3.1947041829817158
aF-4.637476514466219
aa(lp426
F-2.804435793423003
aF-4.228814174547529
aasg12
((lp427
F-2.7950611787355433
aF-4.628449183214067
aF0.39974494812623
tp428
sbsg32
F0.5650790422202633
sba(iSimulation.simulator.models.rectangle_obstacle
RectangleObstacle
p429
(dp430
g3
(iSimulation.simulator.models.polygon
Polygon
p431
(dp432
g6
(lp433
(lp434
F0.24979362013301182
aF1.0040172413365636
aa(lp435
F0.24979362013301182
aF-1.0040172413365636
aa(lp436
F-0.24979362013301182
aF-1.0040172413365636
aa(lp437
F-0.24979362013301182
aF1.0040172413365636
aasg12
((lp438
F0.0
aF0.0
aF1.0346243151793015
tp439
sbsg15
F0.49958724026602364
sg16
(iSimulation.simulator.models.pose
Pose
p440
(dp441
g19
F1.2772594518768818
sg20
F0.38211426916799895
sg21
F-2.5446865070684304
sbsg22
(iSimulation.simulator.models.polygon
Polygon
p442
(dp443
g6
(lp444
(lp445
F0.739859659739582
aF0.3064527208098664
aa(lp446
F-0.3888290282572796
aF1.9672550357143999
aa(lp447
F0.0243688785964159
aF2.248066182943897
aa(lp448
F1.1530575665932776
aF0.5872638680393638
aasg12
((lp449
F0.38211426916799895
aF1.2772594518768818
aF1.0346243151793018
tp450
sbsg32
F2.008034482673127
sba(iSimulation.simulator.models.rectangle_obstacle
RectangleObstacle
p451
(dp452
g3
(iSimulation.simulator.models.polygon
Polygon
p453
(dp454
g6
(lp455
(lp456
F0.3357132980974149
aF0.7552137174671898
aa(lp457
F0.3357132980974149
aF-0.7552137174671898
aa(lp458
F-0.3357132980974149
aF-0.7552137174671898
aa(lp459
F-0.3357132980974149
aF0.7552137174671898
aasg12
((lp460
F0.0
aF0.0
aF0.8264691026106519
tp461
sbsg15
F0.6714265961948298
sg16
(iSimulation.simulator.models.pose
Pose
p462
(dp463
g19
F-1.3035259732370652
sg20
F-1.510949057036043
sg21
F1.7542601302880723
sbsg22
(iSimulation.simulator.models.polygon
Polygon
p464
(dp465
g6
(lp466
(lp467
F-2.3147348310402
aF-1.1112251488015095
aa(lp468
F-0.8296558896841065
aF-0.8356683050412534
aa(lp469
F-0.7071632830318862
aF-1.495826797672621
aa(lp470
F-2.1922422243879796
aF-1.771383641432877
aasg12
((lp471
F-1.510949057036043
aF-1.3035259732370652
aF0.8264691026106519
tp472
sbsg32
F1.5104274349343796
sba(iSimulation.simulator.models.rectangle_obstacle
RectangleObstacle
p473
(dp474
g3
(iSimulation.simulator.models.polygon
Polygon
p475
(dp476
g6
(lp477
(lp478
F0.12100308594591258
aF0.6679594498884106
aa(lp479
F0.12100308594591258
aF-0.6679594498884106
aa(lp480
F-0.12100308594591258
aF-0.6679594498884106
aa(lp481
F-0.12100308594591258
aF0.6679594498884106
aasg12
((lp482
F0.0
aF0.0
aF0.6788310345761027
tp483
sbsg15
F0.24200617189182516
sg16
(iSimulation.simulator.models.pose
Pose
p484
(dp485
g19
F-0.9248393760958558
sg20
F2.446095960890765
sg21
F-0.4047998316222143
sbsg22
(iSimulation.simulator.models.polygon
Polygon
p486
(dp487
g6
(lp488
(lp489
F2.820385389698854
aF-0.3585187981665555
aa(lp490
F2.294254067391204
aF-1.5864704008234831
aa(lp491
F2.0718065320826757
aF-1.4911599540251559
aa(lp492
F2.5979378543903255
aF-0.2632083513682285
aasg12
((lp493
F2.446095960890765
aF-0.9248393760958558
aF0.6788310345761029
tp494
sbsg32
F1.3359188997768212
sba(iSimulation.simulator.models.rectangle_obstacle
RectangleObstacle
p495
(dp496
g3
(iSimulation.simulator.models.polygon
Polygon
p497
(dp498
g6
(lp499
(lp500
F0.08243869184256765
aF0.5501245393047681
aa(lp501
F0.08243869184256765
aF-0.5501245393047681
aa(lp502
F-0.08243869184256765
aF-0.5501245393047681
aa(lp503
F-0.08243869184256765
aF0.5501245393047681
aasg12
((lp504
F0.0
aF0.0
aF0.5562671540348192
tp505
sbsg15
F0.1648773836851353
sg16
(iSimulation.simulator.models.pose
Pose
p506
(dp507
g19
F-1.0521242281288496
sg20
F0.8666659275091777
sg21
F1.9821498478270945
sbsg22
(iSimulation.simulator.models.polygon
Polygon
p508
(dp509
g6
(lp510
(lp511
F0.32946938992638974
aF-1.1965299990213643
aa(lp512
F1.3379361929711293
aF-0.7565950695853669
aa(lp513
F1.4038624650919656
aF-0.9077184572363349
aa(lp514
F0.3953956620472262
aF-1.3476533866723324
aasg12
((lp515
F0.8666659275091777
aF-1.0521242281288496
aF0.5562671540348192
tp516
sbsg32
F1.1002490786095362
sba(iSimulation.simulator.models.rectangle_obstacle
RectangleObstacle
p517
(dp518
g3
(iSimulation.simulator.models.polygon
Polygon
p519
(dp520
g6
(lp521
(lp522
F0.5679489206931654
aF0.6497100723839708
aa(lp523
F0.5679489206931654
aF-0.6497100723839708
aa(lp524
F-0.5679489206931654
aF-0.6497100723839708
aa(lp525
F-0.5679489206931654
aF0.6497100723839708
aasg12
((lp526
F0.0
aF0.0
aF0.8629537384319718
tp527
sbsg15
F1.1358978413863308
sg16
(iSimulation.simulator.models.pose
Pose
p528
(dp529
g19
F2.992751188013763
sg20
F-2.897881723281227
sg21
F-0.718504220769594
sbsg22
(iSimulation.simulator.models.polygon
Polygon
p530
(dp531
g6
(lp532
(lp533
F-2.0426570221565736
aF3.1079894857275168
aa(lp534
F-2.8980125461639425
aF2.1297974594980973
aa(lp535
F-3.75310642440588
aF2.877512890300009
aa(lp536
F-2.897750900398511
aF3.8557049165294286
aasg12
((lp537
F-2.897881723281227
aF2.992751188013763
aF0.8629537384319719
tp538
sbsg32
F1.2994201447679417
sba(iSimulation.simulator.models.rectangle_obstacle
RectangleObstacle
p539
(dp540
g3
(iSimulation.simulator.models.polygon
Polygon
p541
(dp542
g6
(lp543
(lp544
F0.5555117616360776
aF0.40955320872726564
aa(lp545
F0.5555117616360776
aF-0.40955320872726564
aa(lp546
F-0.5555117616360776
aF-0.40955320872726564
aa(lp547
F-0.5555117616360776
aF0.40955320872726564
aasg12
((lp548
F0.0
aF0.0
aF0.6901645804406493
tp549
sbsg15
F1.1110235232721553
sg16
(iSimulation.simulator.models.pose
Pose
p550
(dp551
g19
F-1.3383492546912923
sg20
F-1.0549085443466695
sg21
F1.4227795686261002
sbsg22
(iSimulation.simulator.models.polygon
Polygon
p552
(dp553
g6
(lp554
(lp555
F-1.378058361044462
aF-0.7285121091655375
aa(lp556
F-0.5679084584875522
aF-0.8493113579306937
aa(lp557
F-0.7317587276488768
aF-1.948186400217047
aa(lp558
F-1.5419086302057867
aF-1.827387151451891
aasg12
((lp559
F-1.0549085443466695
aF-1.3383492546912923
aF0.6901645804406493
tp560
sbsg32
F0.8191064174545313
sba(iSimulation.simulator.models.rectangle_obstacle
RectangleObstacle
p561
(dp562
g3
(iSimulation.simulator.models.polygon
Polygon
p563
(dp564
g6
(lp565
(lp566
F1.224411184100645
aF0.06721327905619087
aa(lp567
F1.224411184100645
aF-0.06721327905619087
aa(lp568
F-1.224411184100645
aF-0.06721327905619087
aa(lp569
F-1.224411184100645
aF0.06721327905619087
aasg12
((lp570
F0.0
aF0.0
aF1.2262546116660393
tp571
sbsg15
F2.44882236820129
sg16
(iSimulation.simulator.models.pose
Pose
p572
(dp573
g19
F-2.255849122689255
sg20
F-1.5649541987574926
sg21
F-0.1940171638204382
sbsg22
(iSimulation.simulator.models.polygon
Polygon
p574
(dp575
g6
(lp576
(lp577
F-0.3505569921793612
aF-2.4259661332656823
aa(lp578
F-0.37647473267567944
aF-2.5578705314239967
aa(lp579
F-2.779351405335624
aF-2.085732112112828
aa(lp580
F-2.7534336648393056
aF-1.953827713954514
aasg12
((lp581
F-1.5649541987574924
aF-2.255849122689255
aF1.2262546116660396
tp582
sbsg32
F0.13442655811238174
sba(iSimulation.simulator.models.rectangle_obstacle
RectangleObstacle
p583
(dp584
g3
(iSimulation.simulator.models.polygon
Polygon
p585
(dp586
g6
(lp587
(lp588
F1.1854866050608666
aF0.08171131994568932
aa(lp589
F1.1854866050608666
aF-0.08171131994568932
aa(lp590
F-1.1854866050608666
aF-0.08171131994568932
aa(lp591
F-1.1854866050608666
aF0.08171131994568932
aasg12
((lp592
F0.0
aF0.0
aF1.1882993017695525
tp593
sbsg15
F2.370973210121733
sg16
(iSimulation.simulator.models.pose
Pose
p594
(dp595
g19
F-2.0050425198423936
sg20
F0.24674960325151166
sg21
F1.404108584734943
sbsg22
(iSimulation.simulator.models.polygon
Polygon
p596
(dp597
g6
(lp598
(lp599
F0.3628631053387604
aF-0.8224297830519258
aa(lp600
F0.5240206641371336
aF-0.8495443634694084
aa(lp601
F0.13063610116426289
aF-3.187655256632861
aa(lp602
F-0.03052145763411021
aF-3.160540676215379
aasg12
((lp603
F0.24674960325151168
aF-2.0050425198423936
aF1.1882993017695527
tp604
sbsg32
F0.16342263989137865
sba(iSimulation.simulator.models.rectangle_obstacle
RectangleObstacle
p605
(dp606
g3
(iSimulation.simulator.models.polygon
Polygon
p607
(dp608
g6
(lp609
(lp610
F0.8235415095450546
aF0.4288594813346666
aa(lp611
F0.8235415095450546
aF-0.4288594813346666
aa(lp612
F-0.8235415095450546
aF-0.4288594813346666
aa(lp613
F-0.8235415095450546
aF0.4288594813346666
aasg12
((lp614
F0.0
aF0.0
aF0.9285155209657976
tp615
sbsg15
F1.6470830190901091
sg16
(iSimulation.simulator.models.pose
Pose
p616
(dp617
g19
F-4.24836061834321
sg20
F-1.0248310167007098
sg21
F0.05217794077743188
sbsg22
(iSimulation.simulator.models.polygon
Polygon
p618
(dp619
g6
(lp620
(lp621
F-0.22477716645257695
aF-3.7771335930385015
aa(lp622
F-0.18004346186196318
aF-4.633685234561741
aa(lp623
F-1.8248848669488424
aF-4.719587643647919
aa(lp624
F-1.8696185715394562
aF-3.8630360021246792
aasg12
((lp625
F-1.0248310167007095
aF-4.24836061834321
aF0.9285155209657977
tp626
sbsg32
F0.8577189626693332
sba(iSimulation.simulator.models.rectangle_obstacle
RectangleObstacle
p627
(dp628
g3
(iSimulation.simulator.models.polygon
Polygon
p629
(dp630
g6
(lp631
(lp632
F1.2264825878866665
aF0.056892969960615415
aa(lp633
F1.2264825878866665
aF-0.056892969960615415
aa(lp634
F-1.2264825878866665
aF-0.056892969960615415
aa(lp635
F-1.2264825878866665
aF0.056892969960615415
aasg12
((lp636
F0.0
aF0.0
aF1.2278014287416814
tp637
sbsg15
F2.452965175773333
sg16
(iSimulation.simulator.models.pose
Pose
p638
(dp639
g19
F-0.4768420121378829
sg20
F1.1448627860253522
sg21
F-2.1476360511367747
sbsg22
(iSimulation.simulator.models.polygon
Polygon
p640
(dp641
g6
(lp642
(lp643
F0.5236536093111553
aF-1.5358960745852084
aa(lp644
F0.42827932946269087
aF-1.4738397544627202
aa(lp645
F1.7660719627395491
aF0.5822120503094426
aa(lp646
F1.8614462425880136
aF0.5201557301869543
aasg12
((lp647
F1.1448627860253522
aF-0.4768420121378829
aF1.2278014287416814
tp648
sbsg32
F0.11378593992123083
sba(iSimulation.simulator.models.rectangle_obstacle
RectangleObstacle
p649
(dp650
g3
(iSimulation.simulator.models.polygon
Polygon
p651
(dp652
g6
(lp653
(lp654
F0.74356581898359
aF0.5463760959577806
aa(lp655
F0.74356581898359
aF-0.5463760959577806
aa(lp656
F-0.74356581898359
aF-0.5463760959577806
aa(lp657
F-0.74356581898359
aF0.5463760959577806
aasg12
((lp658
F0.0
aF0.0
aF0.9227225831173759
tp659
sbsg15
F1.48713163796718
sg16
(iSimulation.simulator.models.pose
Pose
p660
(dp661
g19
F-3.2308364641593337
sg20
F-0.15127622426735357
sg21
F-0.626082614318348
sbsg22
(iSimulation.simulator.models.polygon
Polygon
p662
(dp663
g6
(lp664
(lp665
F0.7714195510086646
aF-3.223802853238146
aa(lp666
F0.13109420536672425
aF-4.109291873308295
aa(lp667
F-1.0739719995433716
aF-3.2378700750805214
aa(lp668
F-0.4336466539014314
aF-2.3523810550103725
aasg12
((lp669
F-0.15127622426735357
aF-3.2308364641593337
aF0.9227225831173759
tp670
sbsg32
F1.0927521919155612
sba(iSimulation.simulator.models.rectangle_obstacle
RectangleObstacle
p671
(dp672
g3
(iSimulation.simulator.models.polygon
Polygon
p673
(dp674
g6
(lp675
(lp676
F0.9261460330857987
aF0.17814885199187763
aa(lp677
F0.9261460330857987
aF-0.17814885199187763
aa(lp678
F-0.9261460330857987
aF-0.17814885199187763
aa(lp679
F-0.9261460330857987
aF0.17814885199187763
aasg12
((lp680
F0.0
aF0.0
aF0.943124322699073
tp681
sbsg15
F1.8522920661715974
sg16
(iSimulation.simulator.models.pose
Pose
p682
(dp683
g19
F-1.6604754945664375
sg20
F-2.1118040168598244
sg21
F3.0102270500112827
sbsg22
(iSimulation.simulator.models.polygon
Polygon
p684
(dp685
g6
(lp686
(lp687
F-3.053305700441227
aF-1.715775294565802
aa(lp688
F-3.006634940522975
aF-1.3625474728518996
aa(lp689
F-1.1703023332784217
aF-1.605175694567073
aa(lp690
F-1.2169730931966738
aF-1.9584035162809754
aasg12
((lp691
F-2.111804016859824
aF-1.6604754945664375
aF0.9431243226990736
tp692
sbsg32
F0.35629770398375527
sba(iSimulation.simulator.models.rectangle_obstacle
RectangleObstacle
p693
(dp694
g3
(iSimulation.simulator.models.polygon
Polygon
p695
(dp696
g6
(lp697
(lp698
F0.6964935268248469
aF0.07841374808090618
aa(lp699
F0.6964935268248469
aF-0.07841374808090618
aa(lp700
F-0.6964935268248469
aF-0.07841374808090618
aa(lp701
F-0.6964935268248469
aF0.07841374808090618
aasg12
((lp702
F0.0
aF0.0
aF0.7008936786681769
tp703
sbsg15
F1.3929870536496938
sg16
(iSimulation.simulator.models.pose
Pose
p704
(dp705
g19
F3.704490751771773
sg20
F-3.3822509226528057
sg21
F-2.082220974105728
sbsg22
(iSimulation.simulator.models.polygon
Polygon
p706
(dp707
g6
(lp708
(lp709
F-3.654748293799673
aF3.058737601167724
aa(lp710
F-3.7915094204121935
aF3.135492130676134
aa(lp711
F-3.1097535515059382
aF4.350243902375823
aa(lp712
F-2.972992424893418
aF4.273489372867412
aasg12
((lp713
F-3.3822509226528057
aF3.7044907517717736
aF0.7008936786681772
tp714
sbsg32
F0.15682749616181235
sba(iSimulation.simulator.models.rectangle_obstacle
RectangleObstacle
p715
(dp716
g3
(iSimulation.simulator.models.polygon
Polygon
p717
(dp718
g6
(lp719
(lp720
F0.1556915791284251
aF0.6157814137702107
aa(lp721
F0.1556915791284251
aF-0.6157814137702107
aa(lp722
F-0.1556915791284251
aF-0.6157814137702107
aa(lp723
F-0.1556915791284251
aF0.6157814137702107
aasg12
((lp724
F0.0
aF0.0
aF0.6351587339841451
tp725
sbsg15
F0.3113831582568502
sg16
(iSimulation.simulator.models.pose
Pose
p726
(dp727
g19
F-0.821369659548251
sg20
F0.06938807338244897
sg21
F-1.8753231955696434
sbsg22
(iSimulation.simulator.models.polygon
Polygon
p728
(dp729
g6
(lp730
(lp731
F0.6101538710271225
aF-1.1545347379314186
aa(lp732
F-0.5647434255081888
aF-0.7852606652247438
aa(lp733
F-0.4713777242622245
aF-0.48820458116508353
aa(lp734
F0.7035195722730868
aF-0.8574786538717583
aasg12
((lp735
F0.069388073382449
aF-0.8213696595482511
aF0.6351587339841452
tp736
sbsg32
F1.2315628275404213
sba(iSimulation.simulator.models.rectangle_obstacle
RectangleObstacle
p737
(dp738
g3
(iSimulation.simulator.models.polygon
Polygon
p739
(dp740
g6
(lp741
(lp742
F1.2102555399018868
aF0.052101663949097744
aa(lp743
F1.2102555399018868
aF-0.052101663949097744
aa(lp744
F-1.2102555399018868
aF-0.052101663949097744
aa(lp745
F-1.2102555399018868
aF0.052101663949097744
aasg12
((lp746
F0.0
aF0.0
aF1.211376512587838
tp747
sbsg15
F2.4205110798037737
sg16
(iSimulation.simulator.models.pose
Pose
p748
(dp749
g19
F-1.2229303169013481
sg20
F-2.5835779639167686
sg21
F2.362079566530178
sbsg22
(iSimulation.simulator.models.polygon
Polygon
p750
(dp751
g6
(lp752
(lp753
F-3.481003333034577
aF-0.40925915352314557
aa(lp754
F-3.4077553560920872
aF-0.3351439228421895
aa(lp755
F-1.6861525947989602
aF-2.0366014802795505
aa(lp756
F-1.75940057174145
aF-2.1107167109605065
aasg12
((lp757
F-2.5835779639167686
aF-1.2229303169013481
aF1.211376512587838
tp758
sbsg32
F0.10420332789819549
sba(iSimulation.simulator.models.rectangle_obstacle
RectangleObstacle
p759
(dp760
g3
(iSimulation.simulator.models.polygon
Polygon
p761
(dp762
g6
(lp763
(lp764
F0.5017660221480855
aF0.40685461644150567
aa(lp765
F0.5017660221480855
aF-0.40685461644150567
aa(lp766
F-0.5017660221480855
aF-0.40685461644150567
aa(lp767
F-0.5017660221480855
aF0.40685461644150567
aasg12
((lp768
F0.0
aF0.0
aF0.6459874765830045
tp769
sbsg15
F1.003532044296171
sg16
(iSimulation.simulator.models.pose
Pose
p770
(dp771
g19
F-4.502422513565704
sg20
F1.63978136237754
sg21
F-2.1724108814590126
sbsg22
(iSimulation.simulator.models.polygon
Polygon
p772
(dp773
g6
(lp774
(lp775
F1.691214956178954
aF-5.146359160551064
aa(lp776
F1.0203744359948086
aF-4.685820658188749
aa(lp777
F1.5883477685761258
aF-3.8584858665803434
aa(lp778
F2.2591882887602712
aF-4.319024368942658
aasg12
((lp779
F1.6397813623775401
aF-4.502422513565704
aF0.6459874765830047
tp780
sbsg32
F0.8137092328830113
sba(iSimulation.simulator.models.rectangle_obstacle
RectangleObstacle
p781
(dp782
g3
(iSimulation.simulator.models.polygon
Polygon
p783
(dp784
g6
(lp785
(lp786
F0.7314005514561975
aF0.22600243876441917
aa(lp787
F0.7314005514561975
aF-0.22600243876441917
aa(lp788
F-0.7314005514561975
aF-0.22600243876441917
aa(lp789
F-0.7314005514561975
aF0.22600243876441917
aasg12
((lp790
F0.0
aF0.0
aF0.7655219585341069
tp791
sbsg15
F1.462801102912395
sg16
(iSimulation.simulator.models.pose
Pose
p792
(dp793
g19
F-0.798497946482519
sg20
F0.40194097849310506
sg21
F-1.0093324301105153
sbsg22
(iSimulation.simulator.models.polygon
Polygon
p794
(dp795
g6
(lp796
(lp797
F0.9826633679964539
aF-1.2972818429020163
aa(lp798
F0.6000518152930965
aF-1.5379409566870257
aa(lp799
F-0.1787814110102438
aF-0.29971405006302176
aa(lp800
F0.2038301416931137
aF-0.05905493627801239
aasg12
((lp801
F0.40194097849310506
aF-0.798497946482519
aF0.765521958534107
tp802
sbsg32
F0.45200487752883833
sba(iSimulation.simulator.models.rectangle_obstacle
RectangleObstacle
p803
(dp804
g3
(iSimulation.simulator.models.polygon
Polygon
p805
(dp806
g6
(lp807
(lp808
F0.3593146557488561
aF0.5632765167227017
aa(lp809
F0.3593146557488561
aF-0.5632765167227017
aa(lp810
F-0.3593146557488561
aF-0.5632765167227017
aa(lp811
F-0.3593146557488561
aF0.5632765167227017
aasg12
((lp812
F0.0
aF0.0
aF0.6681223361983785
tp813
sbsg15
F0.7186293114977123
sg16
(iSimulation.simulator.models.pose
Pose
p814
(dp815
g19
F-4.3422276255144485
sg20
F3.4933777957191112
sg21
F2.8258773877086663
sbsg22
(iSimulation.simulator.models.polygon
Polygon
p816
(dp817
g6
(lp818
(lp819
F2.976927067299652
aF-4.7660980081105775
aa(lp820
F3.3267178008365397
aF-3.6952253826799124
aa(lp821
F4.0098285241385705
aF-3.9183572429183195
aa(lp822
F3.6600377906016828
aF-4.989229868348985
aasg12
((lp823
F3.4933777957191112
aF-4.3422276255144485
aF0.6681223361983784
tp824
sbsg32
F1.1265530334454035
sba(iSimulation.simulator.models.rectangle_obstacle
RectangleObstacle
p825
(dp826
g3
(iSimulation.simulator.models.polygon
Polygon
p827
(dp828
g6
(lp829
(lp830
F0.8072775141262643
aF0.4334323063134772
aa(lp831
F0.8072775141262643
aF-0.4334323063134772
aa(lp832
F-0.8072775141262643
aF-0.4334323063134772
aa(lp833
F-0.8072775141262643
aF0.4334323063134772
aasg12
((lp834
F0.0
aF0.0
aF0.9162753674360676
tp835
sbsg15
F1.6145550282525285
sg16
(iSimulation.simulator.models.pose
Pose
p836
(dp837
g19
F2.6626088441661917
sg20
F-1.415300490435565
sg21
F-2.585861967789717
sbsg22
(iSimulation.simulator.models.polygon
Polygon
p838
(dp839
g6
(lp840
(lp841
F-1.8724316411464224
aF1.8685108275335671
aa(lp842
F-2.3297583507174244
aF2.604925477943131
aa(lp843
F-0.9581693397247076
aF3.4567068607988163
aa(lp844
F-0.5008426301537056
aF2.7202922103892524
aasg12
((lp845
F-1.415300490435565
aF2.6626088441661917
aF0.9162753674360676
tp846
sbsg32
F0.8668646126269544
sba(iSimulation.simulator.models.rectangle_obstacle
RectangleObstacle
p847
(dp848
g3
(iSimulation.simulator.models.polygon
Polygon
p849
(dp850
g6
(lp851
(lp852
F0.37043625582592654
aF0.6268656363154148
aa(lp853
F0.37043625582592654
aF-0.6268656363154148
aa(lp854
F-0.37043625582592654
aF-0.6268656363154148
aa(lp855
F-0.37043625582592654
aF0.6268656363154148
aasg12
((lp856
F0.0
aF0.0
aF0.7281370376676778
tp857
sbsg15
F0.7408725116518531
sg16
(iSimulation.simulator.models.pose
Pose
p858
(dp859
g19
F1.135778827289556
sg20
F-1.1309553989230243
sg21
F2.5320066156600394
sbsg22
(iSimulation.simulator.models.polygon
Polygon
p860
(dp861
g6
(lp862
(lp863
F-1.7935687596114154
aF0.8339062053764429
aa(lp864
F-1.0757723663582293
aF1.8618217864458404
aa(lp865
F-0.4683420382346333
aF1.437651449202669
aa(lp866
F-1.1861384314878194
aF0.40973586813327156
aasg12
((lp867
F-1.1309553989230243
aF1.135778827289556
aF0.7281370376676779
tp868
sbsg32
F1.2537312726308296
sba(iSimulation.simulator.models.rectangle_obstacle
RectangleObstacle
p869
(dp870
g3
(iSimulation.simulator.models.polygon
Polygon
p871
(dp872
g6
(lp873
(lp874
F1.1498537015033157
aF0.138335780276232
aa(lp875
F1.1498537015033157
aF-0.138335780276232
aa(lp876
F-1.1498537015033157
aF-0.138335780276232
aa(lp877
F-1.1498537015033157
aF0.138335780276232
aasg12
((lp878
F0.0
aF0.0
aF1.1581452080656855
tp879
sbsg15
F2.2997074030066313
sg16
(iSimulation.simulator.models.pose
Pose
p880
(dp881
g19
F0.898074344669678
sg20
F-0.6509658014460105
sg21
F0.9636849293705865
sbsg22
(iSimulation.simulator.models.polygon
Polygon
p882
(dp883
g6
(lp884
(lp885
F-0.10859230385552676
aF1.9213686875041214
aa(lp886
F0.11863787794988845
aF1.76352827159231
aa(lp887
F-1.1933392990364942
aF-0.12521999816476548
aa(lp888
F-1.4205694808419094
aF0.03262041774704605
aasg12
((lp889
F-0.6509658014460105
aF0.898074344669678
aF1.1581452080656855
tp890
sbsg32
F0.276671560552464
sba(iSimulation.simulator.models.rectangle_obstacle
RectangleObstacle
p891
(dp892
g3
(iSimulation.simulator.models.polygon
Polygon
p893
(dp894
g6
(lp895
(lp896
F0.838608658041669
aF0.3992094396550395
aa(lp897
F0.838608658041669
aF-0.3992094396550395
aa(lp898
F-0.838608658041669
aF-0.3992094396550395
aa(lp899
F-0.838608658041669
aF0.3992094396550395
aasg12
((lp900
F0.0
aF0.0
aF0.9287801989987402
tp901
sbsg15
F1.677217316083338
sg16
(iSimulation.simulator.models.pose
Pose
p902
(dp903
g19
F-2.7863115620427465
sg20
F-2.890391645846167
sg21
F0.9564154582660755
sbsg22
(iSimulation.simulator.models.polygon
Polygon
p904
(dp905
g6
(lp906
(lp907
F-2.7331796130005306
aF-1.8709334790733747
aa(lp908
F-2.080767192136099
aF-2.3311842150212643
aa(lp909
F-3.0476036786918033
aF-3.7016896450121184
aa(lp910
F-3.700016099556235
aF-3.241438909064229
aasg12
((lp911
F-2.890391645846167
aF-2.7863115620427465
aF0.9287801989987403
tp912
sbsg32
F0.798418879310079
sba(iSimulation.simulator.models.rectangle_obstacle
RectangleObstacle
p913
(dp914
g3
(iSimulation.simulator.models.polygon
Polygon
p915
(dp916
g6
(lp917
(lp918
F0.5568296894610375
aF0.5061662778887814
aa(lp919
F0.5568296894610375
aF-0.5061662778887814
aa(lp920
F-0.5568296894610375
aF-0.5061662778887814
aa(lp921
F-0.5568296894610375
aF0.5061662778887814
aasg12
((lp922
F0.0
aF0.0
aF0.7525048863210514
tp923
sbsg15
F1.113659378922075
sg16
(iSimulation.simulator.models.pose
Pose
p924
(dp925
g19
F-0.190628200563095
sg20
F3.0038530157314036
sg21
F-0.2658526256409073
sbsg22
(iSimulation.simulator.models.polygon
Polygon
p926
(dp927
g6
(lp928
(lp929
F3.6741067285026703
aF0.15145887088712937
aa(lp930
F3.4081345355590096
aF-0.8253092674486133
aa(lp931
F2.333599302960137
aF-0.5327152720133194
aa(lp932
F2.5995714959037977
aF0.44405286632242325
aasg12
((lp933
F3.0038530157314036
aF-0.19062820056309504
aF0.7525048863210515
tp934
sbsg32
F1.0123325557775629
sba(iSimulation.simulator.models.rectangle_obstacle
RectangleObstacle
p935
(dp936
g3
(iSimulation.simulator.models.polygon
Polygon
p937
(dp938
g6
(lp939
(lp940
F0.4415730032211152
aF0.1116149942842605
aa(lp941
F0.4415730032211152
aF-0.1116149942842605
aa(lp942
F-0.4415730032211152
aF-0.1116149942842605
aa(lp943
F-0.4415730032211152
aF0.1116149942842605
aasg12
((lp944
F0.0
aF0.0
aF0.45546089197953155
tp945
sbsg15
F0.8831460064422304
sg16
(iSimulation.simulator.models.pose
Pose
p946
(dp947
g19
F3.4639290309359874
sg20
F-3.3689555337751136
sg21
F-2.3142233943986494
sbsg22
(iSimulation.simulator.models.polygon
Polygon
p948
(dp949
g6
(lp950
(lp951
F-3.5856528890028776
aF3.063320892775911
aa(lp952
F-3.7499844032703282
aF3.2144062369191095
aa(lp953
F-3.1522581785473496
aF3.8645371690960637
aa(lp954
F-2.987926664279899
aF3.713451824952865
aasg12
((lp955
F-3.3689555337751136
aF3.4639290309359874
aF0.4554608919795316
tp956
sbsg32
F0.223229988568521
sba(iSimulation.simulator.models.rectangle_obstacle
RectangleObstacle
p957
(dp958
g3
(iSimulation.simulator.models.polygon
Polygon
p959
(dp960
g6
(lp961
(lp962
F1.1988892295673148
aF0.06397015120435703
aa(lp963
F1.1988892295673148
aF-0.06397015120435703
aa(lp964
F-1.1988892295673148
aF-0.06397015120435703
aa(lp965
F-1.1988892295673148
aF0.06397015120435703
aasg12
((lp966
F0.0
aF0.0
aF1.2005946714098052
tp967
sbsg15
F2.3977784591346296
sg16
(iSimulation.simulator.models.pose
Pose
p968
(dp969
g19
F-0.2602991938154468
sg20
F0.43325741272526824
sg21
F-1.2299870684668823
sbsg22
(iSimulation.simulator.models.polygon
Polygon
p970
(dp971
g6
(lp972
(lp973
F0.8942769103794553
aF-1.368851667900593
aa(lp974
F0.7736951610379426
aF-1.411615703095764
aa(lp975
F-0.02776208492891885
aF0.8482532802696994
aa(lp976
F0.09281966441259393
aF0.8910173154648702
aasg12
((lp977
F0.4332574127252683
aF-0.26029919381544686
aF1.2005946714098052
tp978
sbsg32
F0.12794030240871407
sba(iSimulation.simulator.models.rectangle_obstacle
RectangleObstacle
p979
(dp980
g3
(iSimulation.simulator.models.polygon
Polygon
p981
(dp982
g6
(lp983
(lp984
F1.1028088564018956
aF0.1542701045244767
aa(lp985
F1.1028088564018956
aF-0.1542701045244767
aa(lp986
F-1.1028088564018956
aF-0.1542701045244767
aa(lp987
F-1.1028088564018956
aF0.1542701045244767
aasg12
((lp988
F0.0
aF0.0
aF1.1135468732426352
tp989
sbsg15
F2.2056177128037913
sg16
(iSimulation.simulator.models.pose
Pose
p990
(dp991
g19
F4.248265194452322
sg20
F2.6560025968219967
sg21
F1.9803631470960559
sbsg22
(iSimulation.simulator.models.polygon
Polygon
p992
(dp993
g6
(lp994
(lp995
F2.0753399130779706
aF5.19843227797797
aa(lp996
F2.3583618123964656
aF5.321296695553293
aa(lp997
F3.2366652805660228
aF3.298098110926674
aa(lp998
F2.953643381247528
aF3.17523369335135
aasg12
((lp999
F2.6560025968219967
aF4.248265194452322
aF1.113546873242636
tp1000
sbsg32
F0.3085402090489534
sba(iSimulation.simulator.models.rectangle_obstacle
RectangleObstacle
p1001
(dp1002
g3
(iSimulation.simulator.models.polygon
Polygon
p1003
(dp1004
g6
(lp1005
(lp1006
F0.496602794716653
aF0.5657979161053558
aa(lp1007
F0.496602794716653
aF-0.5657979161053558
aa(lp1008
F-0.496602794716653
aF-0.5657979161053558
aa(lp1009
F-0.496602794716653
aF0.5657979161053558
aasg12
((lp1010
F0.0
aF0.0
aF0.7528224343027733
tp1011
sbsg15
F0.993205589433306
sg16
(iSimulation.simulator.models.pose
Pose
p1012
(dp1013
g19
F-2.8581766255795222
sg20
F-0.32377249377883066
sg21
F1.173315163765177
sbsg22
(iSimulation.simulator.models.polygon
Polygon
p1014
(dp1015
g6
(lp1016
(lp1017
F-0.6532267064995165
aF-2.181270768528376
aa(lp1018
F0.3901487292070196
aF-2.6193082414012445
aa(lp1019
F0.005681718941855152
aF-3.5350824826306684
aa(lp1020
F-1.037693716764681
aF-3.0970450097578
aasg12
((lp1021
F-0.32377249377883066
aF-2.8581766255795222
aF0.7528224343027735
tp1022
sbsg32
F1.1315958322107116
sba.(lp0
F2.7058209650922915
aF-1.836080420568151
a.