(lp0
(iSimulation.simulator.models.rectangle_obstacle
RectangleObstacle
p1
(dp2
S'geometry'
p3
(iSimulation.simulator.models.polygon
Polygon
p4
(dp5
S'vertexes'
p6
(lp7
(lp8
F0.1301138631570194
aF0.19096002635023968
aa(lp9
F0.1301138631570194
aF-0.19096002635023968
aa(lp10
F-0.1301138631570194
aF-0.19096002635023968
aa(lp11
F-0.1301138631570194
aF0.19096002635023968
aasS'bounding_circle'
p12
((lp13
F0.0
aF0.0
aF0.23107433663072108
tp14
sbsS'width'
p15
F0.2602277263140388
sS'pose'
p16
(iSimulation.simulator.models.pose
Pose
p17
(dp18
S'y'
p19
F-0.5408594882371939
sS'x'
p20
F-0.6976578748997323
sS'theta'
p21
F-2.5728520405419446
sbsS'global_geometry'
p22
(iSimulation.simulator.models.polygon
Polygon
p23
(dp24
g6
(lp25
(lp26
F-0.7044436047310554
aF-0.7718341684945418
aa(lp27
F-0.9101348000384387
aF-0.4500360037580772
aa(lp28
F-0.6908721450684092
aF-0.30988480797984597
aa(lp29
F-0.4851809497610259
aF-0.6316829727163106
aasg12
((lp30
F-0.6976578748997324
aF-0.5408594882371939
aF0.23107433663072116
tp31
sbsS'height'
p32
F0.38192005270047935
sba(iSimulation.simulator.models.rectangle_obstacle
RectangleObstacle
p33
(dp34
g3
(iSimulation.simulator.models.polygon
Polygon
p35
(dp36
g6
(lp37
(lp38
F0.5004337978668753
aF0.3540473241808239
aa(lp39
F0.5004337978668753
aF-0.3540473241808239
aa(lp40
F-0.5004337978668753
aF-0.3540473241808239
aa(lp41
F-0.5004337978668753
aF0.3540473241808239
aasg12
((lp42
F0.0
aF0.0
aF0.6130118219146071
tp43
sbsg15
F1.0008675957337505
sg16
(iSimulation.simulator.models.pose
Pose
p44
(dp45
g19
F1.9757299019793626
sg20
F1.0052709705431326
sg21
F1.2513708051024928
sbsg22
(iSimulation.simulator.models.polygon
Polygon
p46
(dp47
g6
(lp48
(lp49
F0.8262796042468412
aF2.562028106478108
aa(lp50
F1.4985559738694407
aF2.3396713798304454
aa(lp51
F1.184262336839424
aF1.3894316974806171
aa(lp52
F0.5119859672168244
aF1.6117884241282798
aasg12
((lp53
F1.0052709705431326
aF1.9757299019793626
aF0.6130118219146072
tp54
sbsg32
F0.7080946483616478
sba(iSimulation.simulator.models.rectangle_obstacle
RectangleObstacle
p55
(dp56
g3
(iSimulation.simulator.models.polygon
Polygon
p57
(dp58
g6
(lp59
(lp60
F1.230312754290939
aF0.05890167415440187
aa(lp61
F1.230312754290939
aF-0.05890167415440187
aa(lp62
F-1.230312754290939
aF-0.05890167415440187
aa(lp63
F-1.230312754290939
aF0.05890167415440187
aasg12
((lp64
F0.0
aF0.0
aF1.2317219169070377
tp65
sbsg15
F2.460625508581878
sg16
(iSimulation.simulator.models.pose
Pose
p66
(dp67
g19
F3.118870337307568
sg20
F2.1765280499899364
sg21
F0.39605957835764505
sbsg22
(iSimulation.simulator.models.polygon
Polygon
p68
(dp69
g6
(lp70
(lp71
F3.288876778163
aF3.6478497201958957
aa(lp72
F3.3343236559574656
aF3.539165727945426
aa(lp73
F1.0641793218168731
aF2.58989095441924
aa(lp74
F1.0187324440224075
aF2.69857494666971
aasg12
((lp75
F2.1765280499899364
aF3.1188703373075684
aF1.231721916907038
tp76
sbsg32
F0.11780334830880373
sba(iSimulation.simulator.models.rectangle_obstacle
RectangleObstacle
p77
(dp78
g3
(iSimulation.simulator.models.polygon
Polygon
p79
(dp80
g6
(lp81
(lp82
F0.6255355167702008
aF0.489884572100598
aa(lp83
F0.6255355167702008
aF-0.489884572100598
aa(lp84
F-0.6255355167702008
aF-0.489884572100598
aa(lp85
F-0.6255355167702008
aF0.489884572100598
aasg12
((lp86
F0.0
aF0.0
aF0.7945323006166258
tp87
sbsg15
F1.2510710335404016
sg16
(iSimulation.simulator.models.pose
Pose
p88
(dp89
g19
F-3.291822580172874
sg20
F4.576041753878328
sg21
F0.7271725175228396
sbsg22
(iSimulation.simulator.models.polygon
Polygon
p90
(dp91
g6
(lp92
(lp93
F4.717696759626651
aF-2.5100198965821927
aa(lp94
F5.369008100384549
aF-3.241963277813892
aa(lp95
F4.434386748130005
aF-4.073625263763555
aa(lp96
F3.783075407372107
aF-3.341681882531856
aasg12
((lp97
F4.576041753878328
aF-3.291822580172874
aF0.7945323006166258
tp98
sbsg32
F0.979769144201196
sba(iSimulation.simulator.models.rectangle_obstacle
RectangleObstacle
p99
(dp100
g3
(iSimulation.simulator.models.polygon
Polygon
p101
(dp102
g6
(lp103
(lp104
F0.12080603429254025
aF0.9472205089060347
aa(lp105
F0.12080603429254025
aF-0.9472205089060347
aa(lp106
F-0.12080603429254025
aF-0.9472205089060347
aa(lp107
F-0.12080603429254025
aF0.9472205089060347
aasg12
((lp108
F0.0
aF0.0
aF0.9548930780007244
tp109
sbsg15
F0.2416120685850805
sg16
(iSimulation.simulator.models.pose
Pose
p110
(dp111
g19
F0.6184831797992187
sg20
F2.2738962735683095
sg21
F-0.8629538444612539
sbsg22
(iSimulation.simulator.models.polygon
Polygon
p112
(dp113
g6
(lp114
(lp115
F3.0721102490358554
aF1.1425778656928975
aa(lp116
F1.632777517019114
aF-0.08918025038105493
aa(lp117
F1.4756822981007636
aF0.09438849390553983
aa(lp118
F2.915015030117505
aF1.3261466099794923
aasg12
((lp119
F2.2738962735683095
aF0.6184831797992187
aF0.9548930780007245
tp120
sbsg32
F1.8944410178120694
sba(iSimulation.simulator.models.rectangle_obstacle
RectangleObstacle
p121
(dp122
g3
(iSimulation.simulator.models.polygon
Polygon
p123
(dp124
g6
(lp125
(lp126
F0.6775038110529573
aF0.38956643801219215
aa(lp127
F0.6775038110529573
aF-0.38956643801219215
aa(lp128
F-0.6775038110529573
aF-0.38956643801219215
aa(lp129
F-0.6775038110529573
aF0.38956643801219215
aasg12
((lp130
F0.0
aF0.0
aF0.781519944477931
tp131
sbsg15
F1.3550076221059146
sg16
(iSimulation.simulator.models.pose
Pose
p132
(dp133
g19
F-0.7717521615649495
sg20
F-4.291427260794299
sg21
F3.009556641937019
sbsg22
(iSimulation.simulator.models.polygon
Polygon
p134
(dp135
g6
(lp136
(lp137
F-5.014321487335101
aF-1.0687325663911995
aa(lp138
F-4.911746537348587
aF-0.29638133920418164
aa(lp139
F-3.5685330342534964
aF-0.4747717567386994
aa(lp140
F-3.6711079842400105
aF-1.2471229839257174
aasg12
((lp141
F-4.291427260794299
aF-0.7717521615649495
aF0.7815199444779309
tp142
sbsg32
F0.7791328760243843
sba(iSimulation.simulator.models.rectangle_obstacle
RectangleObstacle
p143
(dp144
g3
(iSimulation.simulator.models.polygon
Polygon
p145
(dp146
g6
(lp147
(lp148
F1.1008002544591977
aF0.16798166525126562
aa(lp149
F1.1008002544591977
aF-0.16798166525126562
aa(lp150
F-1.1008002544591977
aF-0.16798166525126562
aa(lp151
F-1.1008002544591977
aF0.16798166525126562
aasg12
((lp152
F0.0
aF0.0
aF1.113543461243441
tp153
sbsg15
F2.2016005089183954
sg16
(iSimulation.simulator.models.pose
Pose
p154
(dp155
g19
F-0.17473007495513332
sg20
F-1.3205830968137975
sg21
F1.684035472185287
sbsg22
(iSimulation.simulator.models.polygon
Polygon
p156
(dp157
g6
(lp158
(lp159
F-1.6118763322512488
aF0.9000384075872254
aa(lp160
F-1.2780647473074342
aF0.9380013526738689
aa(lp161
F-1.0292898613763461
aF-1.249498557497492
aa(lp162
F-1.3631014463201607
aF-1.2874615025841354
aasg12
((lp163
F-1.3205830968137975
aF-0.17473007495513326
aF1.113543461243441
tp164
sbsg32
F0.33596333050253124
sba(iSimulation.simulator.models.rectangle_obstacle
RectangleObstacle
p165
(dp166
g3
(iSimulation.simulator.models.polygon
Polygon
p167
(dp168
g6
(lp169
(lp170
F0.7858814844748395
aF0.06261377432742742
aa(lp171
F0.7858814844748395
aF-0.06261377432742742
aa(lp172
F-0.7858814844748395
aF-0.06261377432742742
aa(lp173
F-0.7858814844748395
aF0.06261377432742742
aasg12
((lp174
F0.0
aF0.0
aF0.7883718617352495
tp175
sbsg15
F1.571762968949679
sg16
(iSimulation.simulator.models.pose
Pose
p176
(dp177
g19
F-0.6020879226235738
sg20
F-0.533294817056037
sg21
F2.9632342373847784
sbsg22
(iSimulation.simulator.models.polygon
Polygon
p178
(dp179
g6
(lp180
(lp181
F-1.3178178583929465
aF-0.5242818175456994
aa(lp182
F-1.295600704131193
aF-0.401040846279592
aa(lp183
F0.25122822428087255
aF-0.6798940277014482
aa(lp184
F0.22901107001911902
aF-0.8031349989675556
aasg12
((lp185
F-0.533294817056037
aF-0.6020879226235738
aF0.7883718617352496
tp186
sbsg32
F0.12522754865485483
sba(iSimulation.simulator.models.rectangle_obstacle
RectangleObstacle
p187
(dp188
g3
(iSimulation.simulator.models.polygon
Polygon
p189
(dp190
g6
(lp191
(lp192
F0.6273762229967396
aF0.23061378320170978
aa(lp193
F0.6273762229967396
aF-0.23061378320170978
aa(lp194
F-0.6273762229967396
aF-0.23061378320170978
aa(lp195
F-0.6273762229967396
aF0.23061378320170978
aasg12
((lp196
F0.0
aF0.0
aF0.6684187625914311
tp197
sbsg15
F1.2547524459934791
sg16
(iSimulation.simulator.models.pose
Pose
p198
(dp199
g19
F0.07198742738186993
sg20
F1.2149382172534349
sg21
F-0.5325967315234656
sbsg22
(iSimulation.simulator.models.polygon
Polygon
p200
(dp201
g6
(lp202
(lp203
F1.8725167038056474
aF-0.04790492520144317
aa(lp204
F1.6383182080249181
aF-0.4452485203234289
aa(lp205
F0.5573597307012224
aF0.19187977996518302
aa(lp206
F0.7915582264819516
aF0.5892233750871687
aasg12
((lp207
F1.2149382172534349
aF0.07198742738186992
aF0.668418762591431
tp208
sbsg32
F0.46122756640341955
sba(iSimulation.simulator.models.rectangle_obstacle
RectangleObstacle
p209
(dp210
g3
(iSimulation.simulator.models.polygon
Polygon
p211
(dp212
g6
(lp213
(lp214
F0.5992399906418769
aF0.3398378173077625
aa(lp215
F0.5992399906418769
aF-0.3398378173077625
aa(lp216
F-0.5992399906418769
aF-0.3398378173077625
aa(lp217
F-0.5992399906418769
aF0.3398378173077625
aasg12
((lp218
F0.0
aF0.0
aF0.6888964424766475
tp219
sbsg15
F1.1984799812837539
sg16
(iSimulation.simulator.models.pose
Pose
p220
(dp221
g19
F0.43716841256008454
sg20
F-1.5628172818773254
sg21
F-0.5288287108015317
sbsg22
(iSimulation.simulator.models.polygon
Polygon
p222
(dp223
g6
(lp224
(lp225
F-0.8739785197946188
aF0.42825391261082363
aa(lp226
F-1.2168901008728876
aF-0.15857708167323636
aa(lp227
F-2.2516560439600317
aF0.44608291250934545
aa(lp228
F-1.9087444628817631
aF1.0329139067934054
aasg12
((lp229
F-1.5628172818773254
aF0.43716841256008454
aF0.6888964424766475
tp230
sbsg32
F0.679675634615525
sba(iSimulation.simulator.models.rectangle_obstacle
RectangleObstacle
p231
(dp232
g3
(iSimulation.simulator.models.polygon
Polygon
p233
(dp234
g6
(lp235
(lp236
F0.4634132868279819
aF0.21631932090041206
aa(lp237
F0.4634132868279819
aF-0.21631932090041206
aa(lp238
F-0.4634132868279819
aF-0.21631932090041206
aa(lp239
F-0.4634132868279819
aF0.21631932090041206
aasg12
((lp240
F0.0
aF0.0
aF0.5114156069221283
tp241
sbsg15
F0.9268265736559638
sg16
(iSimulation.simulator.models.pose
Pose
p242
(dp243
g19
F0.6546291399697016
sg20
F-2.6587245388016085
sg21
F2.9955608838265473
sbsg22
(iSimulation.simulator.models.polygon
Polygon
p244
(dp245
g6
(lp246
(lp247
F-3.1486827290428674
aF0.5080450520916537
aa(lp248
F-3.0857280547759642
aF0.9360788163757461
aa(lp249
F-2.1687663485603497
aF0.8012132278477495
aa(lp250
F-2.231721022827253
aF0.3731794635636572
aasg12
((lp251
F-2.6587245388016085
aF0.6546291399697016
aF0.5114156069221284
tp252
sbsg32
F0.4326386418008241
sba(iSimulation.simulator.models.rectangle_obstacle
RectangleObstacle
p253
(dp254
g3
(iSimulation.simulator.models.polygon
Polygon
p255
(dp256
g6
(lp257
(lp258
F0.27843672821927085
aF0.2494191434347457
aa(lp259
F0.27843672821927085
aF-0.2494191434347457
aa(lp260
F-0.27843672821927085
aF-0.2494191434347457
aa(lp261
F-0.27843672821927085
aF0.2494191434347457
aasg12
((lp262
F0.0
aF0.0
aF0.3738140189093693
tp263
sbsg15
F0.5568734564385417
sg16
(iSimulation.simulator.models.pose
Pose
p264
(dp265
g19
F4.2281115531903986
sg20
F0.9178497889189282
sg21
F-0.4128569580310901
sbsg22
(iSimulation.simulator.models.polygon
Polygon
p266
(dp267
g6
(lp268
(lp269
F1.2729656944166816
aF4.34485749271587
aa(lp270
F1.072817869427988
aF3.887932461010247
aa(lp271
F0.5627338834211747
aF4.111365613664927
aa(lp272
F0.7628817084098686
aF4.56829064537055
aasg12
((lp273
F0.9178497889189282
aF4.2281115531903986
aF0.3738140189093695
tp274
sbsg32
F0.4988382868694914
sba(iSimulation.simulator.models.rectangle_obstacle
RectangleObstacle
p275
(dp276
g3
(iSimulation.simulator.models.polygon
Polygon
p277
(dp278
g6
(lp279
(lp280
F0.5345313598871941
aF0.3452835499042881
aa(lp281
F0.5345313598871941
aF-0.3452835499042881
aa(lp282
F-0.5345313598871941
aF-0.3452835499042881
aa(lp283
F-0.5345313598871941
aF0.3452835499042881
aasg12
((lp284
F0.0
aF0.0
aF0.6363525002208761
tp285
sbsg15
F1.0690627197743883
sg16
(iSimulation.simulator.models.pose
Pose
p286
(dp287
g19
F-0.7896536470240533
sg20
F-5.690502764065776
sg21
F-1.801734458046612
sbsg22
(iSimulation.simulator.models.polygon
Polygon
p288
(dp289
g6
(lp290
(lp291
F-5.476735106769458
aF-1.3890265636889656
aa(lp292
F-6.148969095946153
aF-1.230962073263018
aa(lp293
F-5.904270421362095
aF-0.19028073035914106
aa(lp294
F-5.232036432185399
aF-0.3483452207850885
aasg12
((lp295
F-5.690502764065776
aF-0.7896536470240534
aF0.6363525002208762
tp296
sbsg32
F0.6905670998085762
sba(iSimulation.simulator.models.rectangle_obstacle
RectangleObstacle
p297
(dp298
g3
(iSimulation.simulator.models.polygon
Polygon
p299
(dp300
g6
(lp301
(lp302
F0.8930537271897739
aF0.06007733437959888
aa(lp303
F0.8930537271897739
aF-0.06007733437959888
aa(lp304
F-0.8930537271897739
aF-0.06007733437959888
aa(lp305
F-0.8930537271897739
aF0.06007733437959888
aasg12
((lp306
F0.0
aF0.0
aF0.8950722014193633
tp307
sbsg15
F1.7861074543795479
sg16
(iSimulation.simulator.models.pose
Pose
p308
(dp309
g19
F-4.899666708065874
sg20
F0.8988610378267747
sg21
F-0.9252387335316876
sbsg22
(iSimulation.simulator.models.polygon
Polygon
p310
(dp311
g6
(lp312
(lp313
F1.4841490180133725
aF-5.57686108636711
aa(lp314
F1.3881737438874255
aF-5.649151412006727
aa(lp315
F0.31357305764017696
aF-4.2224723297646385
aa(lp316
F0.40954833176612393
aF-4.150182004125021
aasg12
((lp317
F0.8988610378267747
aF-4.899666708065874
aF0.8950722014193631
tp318
sbsg32
F0.12015466875919777
sba(iSimulation.simulator.models.rectangle_obstacle
RectangleObstacle
p319
(dp320
g3
(iSimulation.simulator.models.polygon
Polygon
p321
(dp322
g6
(lp323
(lp324
F0.4316909951267623
aF0.8111248414888933
aa(lp325
F0.4316909951267623
aF-0.8111248414888933
aa(lp326
F-0.4316909951267623
aF-0.8111248414888933
aa(lp327
F-0.4316909951267623
aF0.8111248414888933
aasg12
((lp328
F0.0
aF0.0
aF0.9188474431340148
tp329
sbsg15
F0.8633819902535246
sg16
(iSimulation.simulator.models.pose
Pose
p330
(dp331
g19
F-0.19739113447361703
sg20
F-1.1968526547750686
sg21
F0.3103846833127126
sbsg22
(iSimulation.simulator.models.polygon
Polygon
p332
(dp333
g6
(lp334
(lp335
F-1.033527290902264
aF0.7068242432267031
aa(lp336
F-0.5380517452406481
aF-0.837908101735638
aa(lp337
F-1.3601780186478734
aF-1.1016065121739371
aa(lp338
F-1.8556535643094891
aF0.443125832788404
aasg12
((lp339
F-1.1968526547750686
aF-0.197391134473617
aF0.9188474431340149
tp340
sbsg32
F1.6222496829777866
sba(iSimulation.simulator.models.rectangle_obstacle
RectangleObstacle
p341
(dp342
g3
(iSimulation.simulator.models.polygon
Polygon
p343
(dp344
g6
(lp345
(lp346
F0.1528342226051127
aF0.9325195119342428
aa(lp347
F0.1528342226051127
aF-0.9325195119342428
aa(lp348
F-0.1528342226051127
aF-0.9325195119342428
aa(lp349
F-0.1528342226051127
aF0.9325195119342428
aasg12
((lp350
F0.0
aF0.0
aF0.9449608138634044
tp351
sbsg15
F0.3056684452102254
sg16
(iSimulation.simulator.models.pose
Pose
p352
(dp353
g19
F1.1667250978915145
sg20
F1.0533149451960995
sg21
F-1.3830126604543047
sbsg22
(iSimulation.simulator.models.polygon
Polygon
p354
(dp355
g6
(lp356
(lp357
F1.9979725304167384
aF1.1906622326928884
aa(lp358
F0.1657201517332657
aF0.8424930477251914
aa(lp359
F0.10865735997546067
aF1.1427879630901405
aa(lp360
F1.9409097386589331
aF1.4909571480578374
aasg12
((lp361
F1.0533149451960995
aF1.1667250978915145
aF0.9449608138634045
tp362
sbsg32
F1.8650390238684855
sba(iSimulation.simulator.models.rectangle_obstacle
RectangleObstacle
p363
(dp364
g3
(iSimulation.simulator.models.polygon
Polygon
p365
(dp366
g6
(lp367
(lp368
F1.005045423328976
aF0.15395619232478022
aa(lp369
F1.005045423328976
aF-0.15395619232478022
aa(lp370
F-1.005045423328976
aF-0.15395619232478022
aa(lp371
F-1.005045423328976
aF0.15395619232478022
aasg12
((lp372
F0.0
aF0.0
aF1.0167688095676743
tp373
sbsg15
F2.010090846657952
sg16
(iSimulation.simulator.models.pose
Pose
p374
(dp375
g19
F-1.422685613619604
sg20
F-2.670038328665804
sg21
F2.5183641732921034
sbsg22
(iSimulation.simulator.models.polygon
Polygon
p376
(dp377
g6
(lp378
(lp379
F-3.575991589783596
aF-0.9610932601520632
aa(lp380
F-3.396275534052398
aF-0.7110689094719744
aa(lp381
F-1.7640850675480118
aF-1.8842779670871448
aa(lp382
F-1.9438011232792094
aF-2.134302317767234
aasg12
((lp383
F-2.670038328665804
aF-1.422685613619604
aF1.0167688095676746
tp384
sbsg32
F0.30791238464956044
sba(iSimulation.simulator.models.rectangle_obstacle
RectangleObstacle
p385
(dp386
g3
(iSimulation.simulator.models.polygon
Polygon
p387
(dp388
g6
(lp389
(lp390
F1.0366646104881299
aF0.1625527306728961
aa(lp391
F1.0366646104881299
aF-0.1625527306728961
aa(lp392
F-1.0366646104881299
aF-0.1625527306728961
aa(lp393
F-1.0366646104881299
aF0.1625527306728961
aasg12
((lp394
F0.0
aF0.0
aF1.0493316467579357
tp395
sbsg15
F2.0733292209762597
sg16
(iSimulation.simulator.models.pose
Pose
p396
(dp397
g19
F-1.8113481016209798
sg20
F3.546373612664771
sg21
F-1.0390794891752666
sbsg22
(iSimulation.simulator.models.polygon
Polygon
p398
(dp399
g6
(lp400
(lp401
F4.212087330896069
aF-2.6224721058560787
aa(lp402
F3.931866618537141
aF-2.7873050921237406
aa(lp403
F2.8806598944334727
aF-1.0002240973858811
aa(lp404
F3.160880606792401
aF-0.8353911111182191
aasg12
((lp405
F3.5463736126647714
aF-1.8113481016209798
aF1.0493316467579357
tp406
sbsg32
F0.3251054613457922
sba(iSimulation.simulator.models.rectangle_obstacle
RectangleObstacle
p407
(dp408
g3
(iSimulation.simulator.models.polygon
Polygon
p409
(dp410
g6
(lp411
(lp412
F0.20743117689786772
aF0.8909121950985773
aa(lp413
F0.20743117689786772
aF-0.8909121950985773
aa(lp414
F-0.20743117689786772
aF-0.8909121950985773
aa(lp415
F-0.20743117689786772
aF0.8909121950985773
aasg12
((lp416
F0.0
aF0.0
aF0.9147416206364505
tp417
sbsg15
F0.41486235379573544
sg16
(iSimulation.simulator.models.pose
Pose
p418
(dp419
g19
F1.3959910546793932
sg20
F0.6083941682343404
sg21
F-0.22495904223360028
sbsg22
(iSimulation.simulator.models.polygon
Polygon
p420
(dp421
g6
(lp422
(lp423
F1.0093313610647408
aF2.218184219288464
aa(lp424
F0.6118661437761468
aF0.48125602314816496
aa(lp425
F0.20745697540394026
aF0.5737978900703223
aa(lp426
F0.6049221926925341
aF2.3107260862106216
aasg12
((lp427
F0.6083941682343404
aF1.3959910546793932
aF0.9147416206364508
tp428
sbsg32
F1.7818243901971547
sba(iSimulation.simulator.models.rectangle_obstacle
RectangleObstacle
p429
(dp430
g3
(iSimulation.simulator.models.polygon
Polygon
p431
(dp432
g6
(lp433
(lp434
F1.0027385521007004
aF0.29534812265625227
aa(lp435
F1.0027385521007004
aF-0.29534812265625227
aa(lp436
F-1.0027385521007004
aF-0.29534812265625227
aa(lp437
F-1.0027385521007004
aF0.29534812265625227
aasg12
((lp438
F0.0
aF0.0
aF1.045330147573283
tp439
sbsg15
F2.005477104201401
sg16
(iSimulation.simulator.models.pose
Pose
p440
(dp441
g19
F1.4031577322148137
sg20
F4.152472928010668
sg21
F2.0545872704329113
sbsg22
(iSimulation.simulator.models.polygon
Polygon
p442
(dp443
g6
(lp444
(lp445
F3.424607351314412
aF2.1534422247149645
aa(lp446
F3.947514099081885
aF2.428197729419666
aa(lp447
F4.880338504706923
aF0.6528732397146629
aa(lp448
F4.357431756939451
aF0.3781177350099614
aasg12
((lp449
F4.152472928010668
aF1.4031577322148134
aF1.0453301475732832
tp450
sbsg32
F0.5906962453125045
sba(iSimulation.simulator.models.rectangle_obstacle
RectangleObstacle
p451
(dp452
g3
(iSimulation.simulator.models.polygon
Polygon
p453
(dp454
g6
(lp455
(lp456
F0.8163085124430596
aF0.3700108223870547
aa(lp457
F0.8163085124430596
aF-0.3700108223870547
aa(lp458
F-0.8163085124430596
aF-0.3700108223870547
aa(lp459
F-0.8163085124430596
aF0.3700108223870547
aasg12
((lp460
F0.0
aF0.0
aF0.8962519713621528
tp461
sbsg15
F1.6326170248861192
sg16
(iSimulation.simulator.models.pose
Pose
p462
(dp463
g19
F0.46113072908516134
sg20
F0.9299070047347328
sg21
F1.8952810286293422
sbsg22
(iSimulation.simulator.models.polygon
Polygon
p464
(dp465
g6
(lp466
(lp467
F0.31894932193458614
aF1.1168732898496894
aa(lp468
F1.0203530406483852
aF1.352807302040878
aa(lp469
F1.5408646875348793
aF-0.19461183167936674
aa(lp470
F0.8394609688210803
aF-0.43054584387055533
aasg12
((lp471
F0.9299070047347326
aF0.46113072908516123
aF0.896251971362153
tp472
sbsg32
F0.7400216447741094
sba(iSimulation.simulator.models.rectangle_obstacle
RectangleObstacle
p473
(dp474
g3
(iSimulation.simulator.models.polygon
Polygon
p475
(dp476
g6
(lp477
(lp478
F0.8502402293798484
aF0.1269934811735362
aa(lp479
F0.8502402293798484
aF-0.1269934811735362
aa(lp480
F-0.8502402293798484
aF-0.1269934811735362
aa(lp481
F-0.8502402293798484
aF0.1269934811735362
aasg12
((lp482
F0.0
aF0.0
aF0.8596719094610865
tp483
sbsg15
F1.700480458759697
sg16
(iSimulation.simulator.models.pose
Pose
p484
(dp485
g19
F-4.1310084442795
sg20
F-4.256633976148364
sg21
F-1.603677303805945
sbsg22
(iSimulation.simulator.models.polygon
Polygon
p486
(dp487
g6
(lp488
(lp489
F-4.15766083093865
aF-4.984964010128079
aa(lp490
F-4.41151050555498
aF-4.976614175430509
aa(lp491
F-4.355607121358077
aF-3.2770528784309203
aa(lp492
F-4.101757446741748
aF-3.285402713128491
aasg12
((lp493
F-4.256633976148364
aF-4.1310084442795
aF0.8596719094610867
tp494
sbsg32
F0.2539869623470724
sba(iSimulation.simulator.models.rectangle_obstacle
RectangleObstacle
p495
(dp496
g3
(iSimulation.simulator.models.polygon
Polygon
p497
(dp498
g6
(lp499
(lp500
F0.5714788347807915
aF0.4509432312217289
aa(lp501
F0.5714788347807915
aF-0.4509432312217289
aa(lp502
F-0.5714788347807915
aF-0.4509432312217289
aa(lp503
F-0.5714788347807915
aF0.4509432312217289
aasg12
((lp504
F0.0
aF0.0
aF0.7279683072683212
tp505
sbsg15
F1.142957669561583
sg16
(iSimulation.simulator.models.pose
Pose
p506
(dp507
g19
F1.6980630927503089
sg20
F1.7160486682326648
sg21
F-0.29005321389188143
sbsg22
(iSimulation.simulator.models.polygon
Polygon
p508
(dp509
g6
(lp510
(lp511
F2.392627279515782
aF1.9667250348658851
aa(lp512
F2.134684850261647
aF1.1025115807185604
aa(lp513
F1.0394700569495474
aF1.4294011506347326
aa(lp514
F1.2974124862036827
aF2.293614604782057
aasg12
((lp515
F1.716048668232665
aF1.6980630927503089
aF0.7279683072683213
tp516
sbsg32
F0.9018864624434578
sba(iSimulation.simulator.models.rectangle_obstacle
RectangleObstacle
p517
(dp518
g3
(iSimulation.simulator.models.polygon
Polygon
p519
(dp520
g6
(lp521
(lp522
F0.6286417500138053
aF0.4398065497979027
aa(lp523
F0.6286417500138053
aF-0.4398065497979027
aa(lp524
F-0.6286417500138053
aF-0.4398065497979027
aa(lp525
F-0.6286417500138053
aF0.4398065497979027
aasg12
((lp526
F0.0
aF0.0
aF0.7672159090539994
tp527
sbsg15
F1.2572835000276106
sg16
(iSimulation.simulator.models.pose
Pose
p528
(dp529
g19
F1.1890486399087465
sg20
F1.1872387933443795
sg21
F-2.2613314748726836
sbsg22
(iSimulation.simulator.models.polygon
Polygon
p530
(dp531
g6
(lp532
(lp533
F1.1258747265574405
aF0.4242907027724767
aa(lp534
F0.44777635873879107
aF0.9845601098814352
aa(lp535
F1.2486028601313186
aF1.9538065770450164
aa(lp536
F1.926701227949968
aF1.393537169936058
aasg12
((lp537
F1.1872387933443795
aF1.1890486399087465
aF0.7672159090539995
tp538
sbsg32
F0.8796130995958054
sba(iSimulation.simulator.models.rectangle_obstacle
RectangleObstacle
p539
(dp540
g3
(iSimulation.simulator.models.polygon
Polygon
p541
(dp542
g6
(lp543
(lp544
F0.2634480144710838
aF0.343566245321719
aa(lp545
F0.2634480144710838
aF-0.343566245321719
aa(lp546
F-0.2634480144710838
aF-0.343566245321719
aa(lp547
F-0.2634480144710838
aF0.343566245321719
aasg12
((lp548
F0.0
aF0.0
aF0.43294644155278605
tp549
sbsg15
F0.5268960289421676
sg16
(iSimulation.simulator.models.pose
Pose
p550
(dp551
g19
F0.6130128995352826
sg20
F-0.7920842933687275
sg21
F-0.0024937219261071952
sbsg22
(iSimulation.simulator.models.polygon
Polygon
p552
(dp553
g6
(lp554
(lp555
F-0.527780340251542
aF0.9559211111894343
aa(lp556
F-0.5294938558336402
aF0.26879075706279243
aa(lp557
F-1.0563882464859131
aF0.27010468788113084
aa(lp558
F-1.054674730903815
aF0.9572350420077728
aasg12
((lp559
F-0.7920842933687275
aF0.6130128995352826
aF0.43294644155278605
tp560
sbsg32
F0.687132490643438
sba(iSimulation.simulator.models.rectangle_obstacle
RectangleObstacle
p561
(dp562
g3
(iSimulation.simulator.models.polygon
Polygon
p563
(dp564
g6
(lp565
(lp566
F0.6818440780224406
aF0.5851233068706215
aa(lp567
F0.6818440780224406
aF-0.5851233068706215
aa(lp568
F-0.6818440780224406
aF-0.5851233068706215
aa(lp569
F-0.6818440780224406
aF0.5851233068706215
aasg12
((lp570
F0.0
aF0.0
aF0.8984879693003595
tp571
sbsg15
F1.3636881560448813
sg16
(iSimulation.simulator.models.pose
Pose
p572
(dp573
g19
F2.3339462250682983
sg20
F0.4555911706235414
sg21
F2.461151436577599
sbsg22
(iSimulation.simulator.models.polygon
Polygon
p574
(dp575
g6
(lp576
(lp577
F-0.4425251252849931
aF2.308105365929766
aa(lp578
F0.2937191964120904
aF3.2177324520159525
aa(lp579
F1.3537074665320759
aF2.3597870842068307
aa(lp580
F0.6174631448349923
aF1.450159998120644
aasg12
((lp581
F0.4555911706235414
aF2.3339462250682983
aF0.8984879693003595
tp582
sbsg32
F1.170246613741243
sba(iSimulation.simulator.models.rectangle_obstacle
RectangleObstacle
p583
(dp584
g3
(iSimulation.simulator.models.polygon
Polygon
p585
(dp586
g6
(lp587
(lp588
F0.9514705181947171
aF0.21365432022256226
aa(lp589
F0.9514705181947171
aF-0.21365432022256226
aa(lp590
F-0.9514705181947171
aF-0.21365432022256226
aa(lp591
F-0.9514705181947171
aF0.21365432022256226
aasg12
((lp592
F0.0
aF0.0
aF0.9751637378120089
tp593
sbsg15
F1.9029410363894341
sg16
(iSimulation.simulator.models.pose
Pose
p594
(dp595
g19
F4.10485981678952
sg20
F-4.154130028647296
sg21
F-1.6389928768180073
sbsg22
(iSimulation.simulator.models.polygon
Polygon
p596
(dp597
g6
(lp598
(lp599
F-4.00580906712543
aF3.1410417800643726
aa(lp600
F-4.432124435634493
aF3.170160172397095
aa(lp601
F-4.302450990169163
aF5.068677853514667
aa(lp602
F-3.8761356216601
aF5.039559461181945
aasg12
((lp603
F-4.154130028647296
aF4.10485981678952
aF0.975163737812009
tp604
sbsg32
F0.4273086404451245
sba(iSimulation.simulator.models.rectangle_obstacle
RectangleObstacle
p605
(dp606
g3
(iSimulation.simulator.models.polygon
Polygon
p607
(dp608
g6
(lp609
(lp610
F0.34363157450949927
aF0.7859160329071917
aa(lp611
F0.34363157450949927
aF-0.7859160329071917
aa(lp612
F-0.34363157450949927
aF-0.7859160329071917
aa(lp613
F-0.34363157450949927
aF0.7859160329071917
aasg12
((lp614
F0.0
aF0.0
aF0.857756766094244
tp615
sbsg15
F0.6872631490189985
sg16
(iSimulation.simulator.models.pose
Pose
p616
(dp617
g19
F-1.5745297514633967
sg20
F2.3463245678683147
sg21
F-2.7010858279722876
sbsg22
(iSimulation.simulator.models.polygon
Polygon
p618
(dp619
g6
(lp620
(lp621
F2.3706105458564033
aF-2.4319426397812816
aa(lp622
F1.7003845569201208
aF-1.0101644690117713
aa(lp623
F2.322038589880226
aF-0.7171168631455118
aa(lp624
F2.9922645788165085
aF-2.138895033915022
aasg12
((lp625
F2.3463245678683147
aF-1.5745297514633965
aF0.8577567660942442
tp626
sbsg32
F1.5718320658143834
sba(iSimulation.simulator.models.rectangle_obstacle
RectangleObstacle
p627
(dp628
g3
(iSimulation.simulator.models.polygon
Polygon
p629
(dp630
g6
(lp631
(lp632
F0.801680874781292
aF0.41612187793651045
aa(lp633
F0.801680874781292
aF-0.41612187793651045
aa(lp634
F-0.801680874781292
aF-0.41612187793651045
aa(lp635
F-0.801680874781292
aF0.41612187793651045
aasg12
((lp636
F0.0
aF0.0
aF0.9032439550240597
tp637
sbsg15
F1.603361749562584
sg16
(iSimulation.simulator.models.pose
Pose
p638
(dp639
g19
F-1.4405818354192401
sg20
F-3.8942895031985816
sg21
F1.287056204663755
sbsg22
(iSimulation.simulator.models.polygon
Polygon
p640
(dp641
g6
(lp642
(lp643
F-4.069343700271888
aF-0.5544635191800792
aa(lp644
F-3.270377115283904
aF-0.7874486372933828
aa(lp645
F-3.7192353061252748
aF-2.326700151658401
aa(lp646
F-4.518201891113259
aF-2.0937150335450974
aasg12
((lp647
F-3.8942895031985816
aF-1.4405818354192401
aF0.90324395502406
tp648
sbsg32
F0.8322437558730209
sba(iSimulation.simulator.models.rectangle_obstacle
RectangleObstacle
p649
(dp650
g3
(iSimulation.simulator.models.polygon
Polygon
p651
(dp652
g6
(lp653
(lp654
F0.176315438943482
aF0.6487080156201622
aa(lp655
F0.176315438943482
aF-0.6487080156201622
aa(lp656
F-0.176315438943482
aF-0.6487080156201622
aa(lp657
F-0.176315438943482
aF0.6487080156201622
aasg12
((lp658
F0.0
aF0.0
aF0.6722419382481886
tp659
sbsg15
F0.352630877886964
sg16
(iSimulation.simulator.models.pose
Pose
p660
(dp661
g19
F-0.9643006931695551
sg20
F0.0363365320730558
sg21
F0.20313156672291519
sbsg22
(iSimulation.simulator.models.polygon
Polygon
p662
(dp663
g6
(lp664
(lp665
F0.07815812943162583
aF-0.2933609212570093
aa(lp666
F0.3398955902145811
aF-1.564101594936059
aa(lp667
F-0.005485065285514221
aF-1.6352404650821009
aa(lp668
F-0.26722252606846947
aF-0.3644997914030511
aasg12
((lp669
F0.0363365320730558
aF-0.964300693169555
aF0.6722419382481886
tp670
sbsg32
F1.2974160312403245
sba(iSimulation.simulator.models.rectangle_obstacle
RectangleObstacle
p671
(dp672
g3
(iSimulation.simulator.models.polygon
Polygon
p673
(dp674
g6
(lp675
(lp676
F0.4694688850222994
aF0.30881407175396325
aa(lp677
F0.4694688850222994
aF-0.30881407175396325
aa(lp678
F-0.4694688850222994
aF-0.30881407175396325
aa(lp679
F-0.4694688850222994
aF0.30881407175396325
aasg12
((lp680
F0.0
aF0.0
aF0.5619316372276462
tp681
sbsg15
F0.9389377700445988
sg16
(iSimulation.simulator.models.pose
Pose
p682
(dp683
g19
F1.4023824983825164
sg20
F3.8239077148189313
sg21
F-0.853860950765386
sbsg22
(iSimulation.simulator.models.polygon
Polygon
p684
(dp685
g6
(lp686
(lp687
F4.365176330550676
aF1.251400875192194
aa(lp688
F3.8995940542425696
aF0.8455712709975141
aa(lp689
F3.2826390990871874
aF1.5533641215728389
aa(lp690
F3.748221375395293
aF1.9591937257675187
aasg12
((lp691
F3.8239077148189313
aF1.4023824983825164
aF0.5619316372276465
tp692
sbsg32
F0.6176281435079265
sba(iSimulation.simulator.models.rectangle_obstacle
RectangleObstacle
p693
(dp694
g3
(iSimulation.simulator.models.polygon
Polygon
p695
(dp696
g6
(lp697
(lp698
F0.15651620192710874
aF0.7910691046082083
aa(lp699
F0.15651620192710874
aF-0.7910691046082083
aa(lp700
F-0.15651620192710874
aF-0.7910691046082083
aa(lp701
F-0.15651620192710874
aF0.7910691046082083
aasg12
((lp702
F0.0
aF0.0
aF0.8064041478882161
tp703
sbsg15
F0.3130324038542175
sg16
(iSimulation.simulator.models.pose
Pose
p704
(dp705
g19
F0.1351124226586459
sg20
F1.121654100812443
sg21
F-1.1359773107431574
sbsg22
(iSimulation.simulator.models.polygon
Polygon
p706
(dp707
g6
(lp708
(lp709
F1.9050431606481744
aF0.3263955391666352
aa(lp710
F0.4701287720948878
aF-0.3400742730418983
aa(lp711
F0.33826504097671173
aF-0.05617069384934342
aa(lp712
F1.773179429529998
aF0.61029911835919
aasg12
((lp713
F1.121654100812443
aF0.13511242265864587
aF0.8064041478882162
tp714
sbsg32
F1.5821382092164167
sba(iSimulation.simulator.models.rectangle_obstacle
RectangleObstacle
p715
(dp716
g3
(iSimulation.simulator.models.polygon
Polygon
p717
(dp718
g6
(lp719
(lp720
F0.7085797272295026
aF0.573860092771687
aa(lp721
F0.7085797272295026
aF-0.573860092771687
aa(lp722
F-0.7085797272295026
aF-0.573860092771687
aa(lp723
F-0.7085797272295026
aF0.573860092771687
aasg12
((lp724
F0.0
aF0.0
aF0.9118117327149095
tp725
sbsg15
F1.4171594544590052
sg16
(iSimulation.simulator.models.pose
Pose
p726
(dp727
g19
F4.677636107073333
sg20
F3.7045120130710294
sg21
F-3.042469792644798
sbsg22
(iSimulation.simulator.models.polygon
Polygon
p728
(dp729
g6
(lp730
(lp731
F3.056200006856893
aF4.036471402402866
aa(lp732
F2.942620904170002
aF5.178557831591375
aa(lp733
F4.352824019285166
aF5.3188008117438
aa(lp734
F4.466403121972056
aF4.176714382555291
aasg12
((lp735
F3.70451201307103
aF4.677636107073333
aF0.9118117327149101
tp736
sbsg32
F1.147720185543374
sba(iSimulation.simulator.models.rectangle_obstacle
RectangleObstacle
p737
(dp738
g3
(iSimulation.simulator.models.polygon
Polygon
p739
(dp740
g6
(lp741
(lp742
F1.1050021465010433
aF0.1107538735536624
aa(lp743
F1.1050021465010433
aF-0.1107538735536624
aa(lp744
F-1.1050021465010433
aF-0.1107538735536624
aa(lp745
F-1.1050021465010433
aF0.1107538735536624
aasg12
((lp746
F0.0
aF0.0
aF1.1105386820273546
tp747
sbsg15
F2.2100042930020867
sg16
(iSimulation.simulator.models.pose
Pose
p748
(dp749
g19
F2.85451788761612
sg20
F2.8662119057607804
sg21
F2.436328938240397
sbsg22
(iSimulation.simulator.models.polygon
Polygon
p750
(dp751
g6
(lp752
(lp753
F1.9530238774039015
aF3.4864860744299264
aa(lp754
F2.096612875575098
aF3.655151072674241
aa(lp755
F3.7793999341176594
aF2.222549700802314
aa(lp756
F3.6358109359464628
aF2.0538847025579994
aasg12
((lp757
F2.8662119057607804
aF2.85451788761612
aF1.1105386820273546
tp758
sbsg32
F0.2215077471073248
sba(iSimulation.simulator.models.rectangle_obstacle
RectangleObstacle
p759
(dp760
g3
(iSimulation.simulator.models.polygon
Polygon
p761
(dp762
g6
(lp763
(lp764
F0.9362688517450883
aF0.2790032597755117
aa(lp765
F0.9362688517450883
aF-0.2790032597755117
aa(lp766
F-0.9362688517450883
aF-0.2790032597755117
aa(lp767
F-0.9362688517450883
aF0.2790032597755117
aasg12
((lp768
F0.0
aF0.0
aF0.9769555679320466
tp769
sbsg15
F1.8725377034901767
sg16
(iSimulation.simulator.models.pose
Pose
p770
(dp771
g19
F2.2280910122690747
sg20
F3.839804372029783
sg21
F-2.0712206884066875
sbsg22
(iSimulation.simulator.models.polygon
Polygon
p772
(dp773
g6
(lp774
(lp775
F3.635376146136245
aF1.272763172116047
aa(lp776
F3.1457929255583164
aF1.5404935327216212
aa(lp777
F4.044232597923322
aF3.1834188524221023
aa(lp778
F4.53381581850125
aF2.9156884918165282
aasg12
((lp779
F3.839804372029783
aF2.2280910122690747
aF0.976955567932047
tp780
sbsg32
F0.5580065195510234
sba(iSimulation.simulator.models.rectangle_obstacle
RectangleObstacle
p781
(dp782
g3
(iSimulation.simulator.models.polygon
Polygon
p783
(dp784
g6
(lp785
(lp786
F0.970433707338114
aF0.28991697107872055
aa(lp787
F0.970433707338114
aF-0.28991697107872055
aa(lp788
F-0.970433707338114
aF-0.28991697107872055
aa(lp789
F-0.970433707338114
aF0.28991697107872055
aasg12
((lp790
F0.0
aF0.0
aF1.0128146081378644
tp791
sbsg15
F1.940867414676228
sg16
(iSimulation.simulator.models.pose
Pose
p792
(dp793
g19
F2.2005362190692934
sg20
F-3.217699787324098
sg21
F0.550150206226804
sbsg22
(iSimulation.simulator.models.polygon
Polygon
p794
(dp795
g6
(lp796
(lp797
F-2.5420304754126697
aF2.9550323498735493
aa(lp798
F-2.238884432024932
aF2.460755224309156
aa(lp799
F-3.8933690992355263
aF1.4460400882650375
aa(lp800
F-4.196515142623264
aF1.940317213829431
aasg12
((lp801
F-3.217699787324098
aF2.2005362190692934
aF1.0128146081378646
tp802
sbsg32
F0.5798339421574411
sba(iSimulation.simulator.models.rectangle_obstacle
RectangleObstacle
p803
(dp804
g3
(iSimulation.simulator.models.polygon
Polygon
p805
(dp806
g6
(lp807
(lp808
F0.2064187951059573
aF0.335574929550221
aa(lp809
F0.2064187951059573
aF-0.335574929550221
aa(lp810
F-0.2064187951059573
aF-0.335574929550221
aa(lp811
F-0.2064187951059573
aF0.335574929550221
aasg12
((lp812
F0.0
aF0.0
aF0.3939787460201768
tp813
sbsg15
F0.4128375902119146
sg16
(iSimulation.simulator.models.pose
Pose
p814
(dp815
g19
F-1.2662131594975075
sg20
F4.061261924793064
sg21
F2.1345571918676196
sbsg22
(iSimulation.simulator.models.polygon
Polygon
p816
(dp817
g6
(lp818
(lp819
F3.6673129710185663
aF-1.2710581709123052
aa(lp820
F4.234603331904089
aF-0.91241659521741
aa(lp821
F4.455210878567562
aF-1.2613681480827097
aa(lp822
F3.88792051768204
aF-1.620009723777605
aasg12
((lp823
F4.061261924793064
aF-1.2662131594975075
aF0.39397874602017696
tp824
sbsg32
F0.671149859100442
sba(iSimulation.simulator.models.rectangle_obstacle
RectangleObstacle
p825
(dp826
g3
(iSimulation.simulator.models.polygon
Polygon
p827
(dp828
g6
(lp829
(lp830
F0.6977344118670169
aF0.13104734465678503
aa(lp831
F0.6977344118670169
aF-0.13104734465678503
aa(lp832
F-0.6977344118670169
aF-0.13104734465678503
aa(lp833
F-0.6977344118670169
aF0.13104734465678503
aasg12
((lp834
F0.0
aF0.0
aF0.7099343040345396
tp835
sbsg15
F1.3954688237340338
sg16
(iSimulation.simulator.models.pose
Pose
p836
(dp837
g19
F-2.081478822413629
sg20
F-1.8464124115392744
sg21
F2.411781721516072
sbsg22
(iSimulation.simulator.models.polygon
Polygon
p838
(dp839
g6
(lp840
(lp841
F-2.4538072287753403
aF-1.7139488888847092
aa(lp842
F-2.2790611682484605
aF-1.518609593051247
aa(lp843
F-1.2390175943032085
aF-2.4490087559425486
aa(lp844
F-1.4137636548300883
aF-2.644348051776011
aasg12
((lp845
F-1.8464124115392742
aF-2.081478822413629
aF0.7099343040345397
tp846
sbsg32
F0.26209468931357005
sba(iSimulation.simulator.models.rectangle_obstacle
RectangleObstacle
p847
(dp848
g3
(iSimulation.simulator.models.polygon
Polygon
p849
(dp850
g6
(lp851
(lp852
F0.23460543230800496
aF0.22856601396006332
aa(lp853
F0.23460543230800496
aF-0.22856601396006332
aa(lp854
F-0.23460543230800496
aF-0.22856601396006332
aa(lp855
F-0.23460543230800496
aF0.22856601396006332
aasg12
((lp856
F0.0
aF0.0
aF0.3275395115188666
tp857
sbsg15
F0.4692108646160099
sg16
(iSimulation.simulator.models.pose
Pose
p858
(dp859
g19
F-1.5553992636107146
sg20
F-0.4024657333797582
sg21
F1.809885499231032
sbsg22
(iSimulation.simulator.models.polygon
Polygon
p860
(dp861
g6
(lp862
(lp863
F-0.6800887202210886
aF-1.381595901205621
aa(lp864
F-0.23596023430541452
aF-1.2733388970506083
aa(lp865
F-0.12484274653842792
aF-1.7292026260158082
aa(lp866
F-0.5689712324541019
aF-1.8374596301708208
aasg12
((lp867
F-0.4024657333797582
aF-1.5553992636107146
aF0.3275395115188667
tp868
sbsg32
F0.45713202792012664
sba.(lp0
F-1.5502323139699332
aF-1.5487671127239913
a.