(lp0
(isrimulatorcore.models.map.rectangle_obstacle
RectangleObstacle
p1
(dp2
S'geometry'
p3
(isrimulatorcore.utils.polygon
Polygon
p4
(dp5
S'vertexes'
p6
(lp7
(lp8
F0.0710676021812691
aF0.812883648353888
aa(lp9
F0.0710676021812691
aF-0.812883648353888
aa(lp10
F-0.0710676021812691
aF-0.812883648353888
aa(lp11
F-0.0710676021812691
aF0.812883648353888
aasS'bounding_circle'
p12
((lp13
F0.0
aF0.0
aF0.815984331859946
tp14
sbsS'width'
p15
F0.1421352043625382
sS'pose'
p16
(isrimulatorcore.utils.pose
Pose
p17
(dp18
S'y'
p19
F-1.7697583460367927
sS'x'
p20
F-1.070771120001121
sS'theta'
p21
F-3.04007087634984
sbsS'global_geometry'
p22
(isrimulatorcore.utils.polygon
Polygon
p23
(dp24
g6
(lp25
(lp26
F-1.0590890960661883
aF-2.5856590508763624
aa(lp27
F-1.2238565067809863
aF-0.968262685290347
aa(lp28
F-1.0824531439360536
aF-0.9538576411972232
aa(lp29
F-0.9176857332212556
aF-2.5712540067832386
aasg12
((lp30
F-1.070771120001121
aF-1.7697583460367927
aF0.8159843318599462
tp31
sbsS'height'
p32
F1.625767296707776
sba(isrimulatorcore.models.map.rectangle_obstacle
RectangleObstacle
p33
(dp34
g3
(isrimulatorcore.utils.polygon
Polygon
p35
(dp36
g6
(lp37
(lp38
F1.045515596878641
aF0.08667660163642062
aa(lp39
F1.045515596878641
aF-0.08667660163642062
aa(lp40
F-1.045515596878641
aF-0.08667660163642062
aa(lp41
F-1.045515596878641
aF0.08667660163642062
aasg12
((lp42
F0.0
aF0.0
aF1.0491023289401944
tp43
sbsg15
F2.091031193757282
sg16
(isrimulatorcore.utils.pose
Pose
p44
(dp45
g19
F1.9581761376198021
sg20
F4.8635061971929705
sg21
F0.7163873784683269
sbsg22
(isrimulatorcore.utils.polygon
Polygon
p46
(dp47
g6
(lp48
(lp49
F5.595098771150958
aF2.710099007545479
aa(lp50
F5.708933645851391
aF2.5793589815897993
aa(lp51
F4.131913623234983
aF1.2062532676941253
aa(lp52
F4.01807874853455
aF1.336993293649805
aasg12
((lp53
F4.8635061971929705
aF1.9581761376198021
aF1.0491023289401946
tp54
sbsg32
F0.17335320327284123
sba(isrimulatorcore.models.map.rectangle_obstacle
RectangleObstacle
p55
(dp56
g3
(isrimulatorcore.utils.polygon
Polygon
p57
(dp58
g6
(lp59
(lp60
F1.1574857029997478
aF0.06979705298837176
aa(lp61
F1.1574857029997478
aF-0.06979705298837176
aa(lp62
F-1.1574857029997478
aF-0.06979705298837176
aa(lp63
F-1.1574857029997478
aF0.06979705298837176
aasg12
((lp64
F0.0
aF0.0
aF1.159588194685804
tp65
sbsg15
F2.3149714059994957
sg16
(isrimulatorcore.utils.pose
Pose
p66
(dp67
g19
F-4.165104085080463
sg20
F2.435766502786126
sg21
F2.939083797948844
sbsg22
(isrimulatorcore.utils.polygon
Polygon
p68
(dp69
g6
(lp70
(lp71
F1.2878958390687287
aF-4.000672577662743
aa(lp72
F1.315972059393128
aF-3.8639310686914654
aa(lp73
F3.5836371665035234
aF-4.329535592498183
aa(lp74
F3.555560946179124
aF-4.46627710146946
aasg12
((lp75
F2.435766502786126
aF-4.165104085080463
aF1.159588194685804
tp76
sbsg32
F0.13959410597674352
sba(isrimulatorcore.models.map.rectangle_obstacle
RectangleObstacle
p77
(dp78
g3
(isrimulatorcore.utils.polygon
Polygon
p79
(dp80
g6
(lp81
(lp82
F0.4833915689089133
aF0.25404256271298264
aa(lp83
F0.4833915689089133
aF-0.25404256271298264
aa(lp84
F-0.4833915689089133
aF-0.25404256271298264
aa(lp85
F-0.4833915689089133
aF0.25404256271298264
aasg12
((lp86
F0.0
aF0.0
aF0.5460815255637206
tp87
sbsg15
F0.9667831378178267
sg16
(isrimulatorcore.utils.pose
Pose
p88
(dp89
g19
F1.9383120871090112
sg20
F-5.209340791613594
sg21
F1.0979541727222824
sbsg22
(isrimulatorcore.utils.polygon
Polygon
p90
(dp91
g6
(lp92
(lp93
F-5.215363745341835
aF2.4843603968677614
aa(lp94
F-4.763026981779484
aF2.2529690681429013
aa(lp95
F-5.203317837885353
aF1.392263777350261
aa(lp96
F-5.655654601447704
aF1.6236551060751208
aasg12
((lp97
F-5.209340791613594
aF1.9383120871090112
aF0.5460815255637208
tp98
sbsg32
F0.5080851254259653
sba(isrimulatorcore.models.map.rectangle_obstacle
RectangleObstacle
p99
(dp100
g3
(isrimulatorcore.utils.polygon
Polygon
p101
(dp102
g6
(lp103
(lp104
F0.18641928884467196
aF0.9692705094138725
aa(lp105
F0.18641928884467196
aF-0.9692705094138725
aa(lp106
F-0.18641928884467196
aF-0.9692705094138725
aa(lp107
F-0.18641928884467196
aF0.9692705094138725
aasg12
((lp108
F0.0
aF0.0
aF0.9870346861548388
tp109
sbsg15
F0.3728385776893439
sg16
(isrimulatorcore.utils.pose
Pose
p110
(dp111
g19
F0.9759554220620794
sg20
F1.9088638975856254
sg21
F1.0056284796342796
sbsg22
(isrimulatorcore.utils.polygon
Polygon
p112
(dp113
g6
(lp114
(lp115
F1.190154453949686
aF1.6524864319214205
aa(lp116
F2.8272498639906525
aF0.614286114015231
aa(lp117
F2.6275733412215647
aF0.2994244122027384
aa(lp118
F0.9904779311805985
aF1.337624730108928
aasg12
((lp119
F1.9088638975856254
aF0.9759554220620794
aF0.9870346861548391
tp120
sbsg32
F1.938541018827745
sba(isrimulatorcore.models.map.rectangle_obstacle
RectangleObstacle
p121
(dp122
g3
(isrimulatorcore.utils.polygon
Polygon
p123
(dp124
g6
(lp125
(lp126
F0.5657107528829628
aF0.4859950494135153
aa(lp127
F0.5657107528829628
aF-0.4859950494135153
aa(lp128
F-0.5657107528829628
aF-0.4859950494135153
aa(lp129
F-0.5657107528829628
aF0.4859950494135153
aasg12
((lp130
F0.0
aF0.0
aF0.7458014775943085
tp131
sbsg15
F1.1314215057659256
sg16
(isrimulatorcore.utils.pose
Pose
p132
(dp133
g19
F4.6238502775146655
sg20
F-1.1393602142665318
sg21
F-2.8892258302378697
sbsg22
(isrimulatorcore.utils.polygon
Polygon
p134
(dp135
g6
(lp136
(lp137
F-1.5658003293820135
aF4.011993535946716
aa(lp138
F-1.8085028635492866
aF4.953195019225703
aa(lp139
F-0.71292009915105
aF5.235707019082615
aa(lp140
F-0.47021756498377687
aF4.294505535803628
aasg12
((lp141
F-1.1393602142665318
aF4.623850277514665
aF0.7458014775943094
tp142
sbsg32
F0.9719900988270306
sba(isrimulatorcore.models.map.rectangle_obstacle
RectangleObstacle
p143
(dp144
g3
(isrimulatorcore.utils.polygon
Polygon
p145
(dp146
g6
(lp147
(lp148
F0.8870464013885979
aF0.058511490507510144
aa(lp149
F0.8870464013885979
aF-0.058511490507510144
aa(lp150
F-0.8870464013885979
aF-0.058511490507510144
aa(lp151
F-0.8870464013885979
aF0.058511490507510144
aasg12
((lp152
F0.0
aF0.0
aF0.8889740787772566
tp153
sbsg15
F1.7740928027771958
sg16
(isrimulatorcore.utils.pose
Pose
p154
(dp155
g19
F-3.8469119585816034
sg20
F-4.3658853376334745
sg21
F1.9825674587608981
sbsg22
(isrimulatorcore.utils.polygon
Polygon
p156
(dp157
g6
(lp158
(lp159
F-4.77453133264058
aF-3.057428986312711
aa(lp160
F-4.66728990531543
aF-3.010592522410038
aa(lp161
F-3.957239342626369
aF-4.6363949308504955
aa(lp162
F-4.064480769951519
aF-4.683231394753169
aasg12
((lp163
F-4.3658853376334745
aF-3.846911958581603
aF0.8889740787772569
tp164
sbsg32
F0.11702298101502029
sba(isrimulatorcore.models.map.rectangle_obstacle
RectangleObstacle
p165
(dp166
g3
(isrimulatorcore.utils.polygon
Polygon
p167
(dp168
g6
(lp169
(lp170
F1.097130179920109
aF0.06521862507328144
aa(lp171
F1.097130179920109
aF-0.06521862507328144
aa(lp172
F-1.097130179920109
aF-0.06521862507328144
aa(lp173
F-1.097130179920109
aF0.06521862507328144
aasg12
((lp174
F0.0
aF0.0
aF1.0990669227794911
tp175
sbsg15
F2.194260359840218
sg16
(isrimulatorcore.utils.pose
Pose
p176
(dp177
g19
F-2.0525275308672426
sg20
F-0.34171328167300347
sg21
F0.26544053557831226
sbsg22
(isrimulatorcore.utils.polygon
Polygon
p178
(dp179
g6
(lp180
(lp181
F0.6998830485555396
aF-1.7017780681414791
aa(lp182
F0.7341012263500668
aF-1.827647017983047
aa(lp183
F-1.3833096119015467
aF-2.403276993593006
aa(lp184
F-1.4175277896960738
aF-2.2774080437514383
aasg12
((lp185
F-0.3417132816730035
aF-2.0525275308672426
aF1.0990669227794914
tp186
sbsg32
F0.13043725014656288
sba(isrimulatorcore.models.map.rectangle_obstacle
RectangleObstacle
p187
(dp188
g3
(isrimulatorcore.utils.polygon
Polygon
p189
(dp190
g6
(lp191
(lp192
F1.1050085216680816
aF0.06387106066580027
aa(lp193
F1.1050085216680816
aF-0.06387106066580027
aa(lp194
F-1.1050085216680816
aF-0.06387106066580027
aa(lp195
F-1.1050085216680816
aF0.06387106066580027
aasg12
((lp196
F0.0
aF0.0
aF1.1068529014054458
tp197
sbsg15
F2.2100170433361632
sg16
(isrimulatorcore.utils.pose
Pose
p198
(dp199
g19
F-1.655974415326564
sg20
F-4.513363302610474
sg21
F-1.3805303243928801
sbsg22
(isrimulatorcore.utils.polygon
Polygon
p200
(dp201
g6
(lp202
(lp203
F-4.241665535147003
aF-2.72896261120992
aa(lp204
F-4.367102417488869
aF-2.75312121445287
aa(lp205
F-4.785061070073944
aF-0.5829862194432078
aa(lp206
F-4.659624187732078
aF-0.5588276162002581
aasg12
((lp207
F-4.513363302610474
aF-1.6559744153265639
aF1.1068529014054458
tp208
sbsg32
F0.12774212133160054
sba(isrimulatorcore.models.map.rectangle_obstacle
RectangleObstacle
p209
(dp210
g3
(isrimulatorcore.utils.polygon
Polygon
p211
(dp212
g6
(lp213
(lp214
F0.2316612867461067
aF0.31194428251827616
aa(lp215
F0.2316612867461067
aF-0.31194428251827616
aa(lp216
F-0.2316612867461067
aF-0.31194428251827616
aa(lp217
F-0.2316612867461067
aF0.31194428251827616
aasg12
((lp218
F0.0
aF0.0
aF0.3885565430831193
tp219
sbsg15
F0.4633225734922134
sg16
(isrimulatorcore.utils.pose
Pose
p220
(dp221
g19
F1.2715105561186917
sg20
F1.755320389883076
sg21
F0.345045698260833
sbsg22
(isrimulatorcore.utils.polygon
Polygon
p222
(dp223
g6
(lp224
(lp225
F1.867815624558865
aF1.6434258816269895
aa(lp226
F2.078839494653651
aF1.0563093107199955
aa(lp227
F1.642825155207287
aF0.8995952306103938
aa(lp228
F1.4318012851125013
aF1.486711801517388
aasg12
((lp229
F1.7553203898830763
aF1.2715105561186917
aF0.38855654308311954
tp230
sbsg32
F0.6238885650365523
sba(isrimulatorcore.models.map.rectangle_obstacle
RectangleObstacle
p231
(dp232
g3
(isrimulatorcore.utils.polygon
Polygon
p233
(dp234
g6
(lp235
(lp236
F0.8936956213841168
aF0.29816482060241883
aa(lp237
F0.8936956213841168
aF-0.29816482060241883
aa(lp238
F-0.8936956213841168
aF-0.29816482060241883
aa(lp239
F-0.8936956213841168
aF0.29816482060241883
aasg12
((lp240
F0.0
aF0.0
aF0.9421221385393803
tp241
sbsg15
F1.7873912427682337
sg16
(isrimulatorcore.utils.pose
Pose
p242
(dp243
g19
F-0.4711180127490639
sg20
F3.8199405637943378
sg21
F-0.18802554930351342
sbsg22
(isrimulatorcore.utils.polygon
Polygon
p244
(dp245
g6
(lp246
(lp247
F4.753617842211674
aF-0.3452575197688949
aa(lp248
F4.642152138746288
aF-0.9310769782460413
aa(lp249
F2.8862632853770016
aF-0.5969785057292329
aa(lp250
F2.997728988842388
aF-0.011159047252086551
aasg12
((lp251
F3.8199405637943378
aF-0.47111801274906395
aF0.9421221385393804
tp252
sbsg32
F0.5963296412048377
sba(isrimulatorcore.models.map.rectangle_obstacle
RectangleObstacle
p253
(dp254
g3
(isrimulatorcore.utils.polygon
Polygon
p255
(dp256
g6
(lp257
(lp258
F1.093468003390016
aF0.1619848465746871
aa(lp259
F1.093468003390016
aF-0.1619848465746871
aa(lp260
F-1.093468003390016
aF-0.1619848465746871
aa(lp261
F-1.093468003390016
aF0.1619848465746871
aasg12
((lp262
F0.0
aF0.0
aF1.1054009973568744
tp263
sbsg15
F2.186936006780032
sg16
(isrimulatorcore.utils.pose
Pose
p264
(dp265
g19
F-0.9141326693431141
sg20
F-4.747231791084263
sg21
F1.8777069838468012
sbsg22
(isrimulatorcore.utils.polygon
Polygon
p266
(dp267
g6
(lp268
(lp269
F-5.2320005170056305
aF0.07930109660514828
aa(lp270
F-4.923169456376412
aF0.17717723297112797
aa(lp271
F-4.262463065162896
aF-1.9075664352913764
aa(lp272
F-4.5712941257921145
aF-2.005442571657356
aasg12
((lp273
F-4.747231791084263
aF-0.914132669343114
aF1.1054009973568744
tp274
sbsg32
F0.3239696931493742
sba(isrimulatorcore.models.map.rectangle_obstacle
RectangleObstacle
p275
(dp276
g3
(isrimulatorcore.utils.polygon
Polygon
p277
(dp278
g6
(lp279
(lp280
F0.3271806600660856
aF0.45666405910467356
aa(lp281
F0.3271806600660856
aF-0.45666405910467356
aa(lp282
F-0.3271806600660856
aF-0.45666405910467356
aa(lp283
F-0.3271806600660856
aF0.45666405910467356
aasg12
((lp284
F0.0
aF0.0
aF0.561773305879904
tp285
sbsg15
F0.6543613201321712
sg16
(isrimulatorcore.utils.pose
Pose
p286
(dp287
g19
F4.779736659418556
sg20
F-3.604516556767157
sg21
F-1.2856742553583367
sbsg22
(isrimulatorcore.utils.polygon
Polygon
p288
(dp289
g6
(lp290
(lp291
F-3.074261639529059
aF4.594213157015076
aa(lp292
F-3.950716257735099
aF4.337317159114892
aa(lp293
F-4.134771474005255
aF4.965260161822036
aa(lp294
F-3.2583168557992153
aF5.22215615972222
aasg12
((lp295
F-3.604516556767157
aF4.779736659418556
aF0.5617733058799043
tp296
sbsg32
F0.9133281182093471
sba(isrimulatorcore.models.map.rectangle_obstacle
RectangleObstacle
p297
(dp298
g3
(isrimulatorcore.utils.polygon
Polygon
p299
(dp300
g6
(lp301
(lp302
F0.35568733611499526
aF0.19085652016487564
aa(lp303
F0.35568733611499526
aF-0.19085652016487564
aa(lp304
F-0.35568733611499526
aF-0.19085652016487564
aa(lp305
F-0.35568733611499526
aF0.19085652016487564
aasg12
((lp306
F0.0
aF0.0
aF0.403657890251172
tp307
sbsg15
F0.7113746722299905
sg16
(isrimulatorcore.utils.pose
Pose
p308
(dp309
g19
F-3.17267373787581
sg20
F3.4269920095878703
sg21
F2.0352559345713797
sbsg22
(isrimulatorcore.utils.polygon
Polygon
p310
(dp311
g6
(lp312
(lp313
F3.0970276253091935
aF-2.9401587975609544
aa(lp314
F3.438303421113034
aF-2.7691743644793503
aa(lp315
F3.756956393866547
aF-3.4051886781906653
aa(lp316
F3.4156805980627065
aF-3.5761731112722694
aasg12
((lp317
F3.4269920095878703
aF-3.17267373787581
aF0.4036578902511719
tp318
sbsg32
F0.3817130403297513
sba(isrimulatorcore.models.map.rectangle_obstacle
RectangleObstacle
p319
(dp320
g3
(isrimulatorcore.utils.polygon
Polygon
p321
(dp322
g6
(lp323
(lp324
F0.14784056238408758
aF0.21114138161855206
aa(lp325
F0.14784056238408758
aF-0.21114138161855206
aa(lp326
F-0.14784056238408758
aF-0.21114138161855206
aa(lp327
F-0.14784056238408758
aF0.21114138161855206
aasg12
((lp328
F0.0
aF0.0
aF0.25775475731368047
tp329
sbsg15
F0.29568112476817515
sg16
(isrimulatorcore.utils.pose
Pose
p330
(dp331
g19
F0.17565081766651625
sg20
F-3.1807348165664244
sg21
F-0.2693328214830095
sbsg22
(isrimulatorcore.utils.polygon
Polygon
p332
(dp333
g6
(lp334
(lp335
F-2.9820418415146808
aF0.33984161090085563
aa(lp336
F-3.0944063737203247
aF-0.06721728413691533
aa(lp337
F-3.379427791618168
aF0.01146002443217689
aa(lp338
F-3.267063259412524
aF0.4185189194699478
aasg12
((lp339
F-3.1807348165664244
aF0.17565081766651625
aF0.25775475731368064
tp340
sbsg32
F0.4222827632371041
sba(isrimulatorcore.models.map.rectangle_obstacle
RectangleObstacle
p341
(dp342
g3
(isrimulatorcore.utils.polygon
Polygon
p343
(dp344
g6
(lp345
(lp346
F0.4265874857264249
aF0.8438966547695699
aa(lp347
F0.4265874857264249
aF-0.8438966547695699
aa(lp348
F-0.4265874857264249
aF-0.8438966547695699
aa(lp349
F-0.4265874857264249
aF0.8438966547695699
aasg12
((lp350
F0.0
aF0.0
aF0.9455889418291985
tp351
sbsg15
F0.8531749714528498
sg16
(isrimulatorcore.utils.pose
Pose
p352
(dp353
g19
F1.0524364624073057
sg20
F-0.28605596517879894
sg21
F3.0268520546712416
sbsg22
(isrimulatorcore.utils.polygon
Polygon
p354
(dp355
g6
(lp356
(lp357
F-0.8064553133025959
aF0.2629284096415404
aa(lp358
F-0.6132215503955426
aF1.939623661796166
aa(lp359
F0.234343382944998
aF1.8419445151730711
aa(lp360
F0.041109620037944716
aF0.16524926301844556
aasg12
((lp361
F-0.28605596517879894
aF1.0524364624073057
aF0.9455889418291987
tp362
sbsg32
F1.6877933095391398
sba(isrimulatorcore.models.map.rectangle_obstacle
RectangleObstacle
p363
(dp364
g3
(isrimulatorcore.utils.polygon
Polygon
p365
(dp366
g6
(lp367
(lp368
F0.2272038055678613
aF0.633181362611012
aa(lp369
F0.2272038055678613
aF-0.633181362611012
aa(lp370
F-0.2272038055678613
aF-0.633181362611012
aa(lp371
F-0.2272038055678613
aF0.633181362611012
aasg12
((lp372
F0.0
aF0.0
aF0.6727110874829226
tp373
sbsg15
F0.4544076111357226
sg16
(isrimulatorcore.utils.pose
Pose
p374
(dp375
g19
F1.9216033100312404
sg20
F1.5860960982658663
sg21
F-1.5864489370731942
sbsg22
(isrimulatorcore.utils.polygon
Polygon
p376
(dp377
g6
(lp378
(lp379
F2.2156437090065646
aF1.6845168004337208
aa(lp380
F0.9494361127158304
aF1.7043378732450722
aa(lp381
F0.9565484875251682
aF2.1586898196287603
aa(lp382
F2.222756083815902
aF2.1388687468174084
aasg12
((lp383
F1.5860960982658663
aF1.9216033100312404
aF0.6727110874829227
tp384
sbsg32
F1.266362725222024
sba(isrimulatorcore.models.map.rectangle_obstacle
RectangleObstacle
p385
(dp386
g3
(isrimulatorcore.utils.polygon
Polygon
p387
(dp388
g6
(lp389
(lp390
F0.9892038138394932
aF0.29717384967922805
aa(lp391
F0.9892038138394932
aF-0.29717384967922805
aa(lp392
F-0.9892038138394932
aF-0.29717384967922805
aa(lp393
F-0.9892038138394932
aF0.29717384967922805
aasg12
((lp394
F0.0
aF0.0
aF1.0328777673315324
tp395
sbsg15
F1.9784076276789864
sg16
(isrimulatorcore.utils.pose
Pose
p396
(dp397
g19
F0.0631613890172785
sg20
F-4.656674831780466
sg21
F-0.3140890020866176
sbsg22
(isrimulatorcore.utils.polygon
Polygon
p398
(dp399
g6
(lp400
(lp401
F-3.6240527117133903
aF0.040182281202795794
aa(lp402
F-3.8076765340349263
aF-0.5250888746230774
aa(lp403
F-5.689296951847541
aF0.0861404968317612
aa(lp404
F-5.505673129526005
aF0.6514116526576345
aasg12
((lp405
F-4.656674831780466
aF0.0631613890172785
aF1.0328777673315326
tp406
sbsg32
F0.5943476993584561
sba(isrimulatorcore.models.map.rectangle_obstacle
RectangleObstacle
p407
(dp408
g3
(isrimulatorcore.utils.polygon
Polygon
p409
(dp410
g6
(lp411
(lp412
F0.8083242421358133
aF0.4408624821241956
aa(lp413
F0.8083242421358133
aF-0.4408624821241956
aa(lp414
F-0.8083242421358133
aF-0.4408624821241956
aa(lp415
F-0.8083242421358133
aF0.4408624821241956
aasg12
((lp416
F0.0
aF0.0
aF0.9207322132787272
tp417
sbsg15
F1.6166484842716267
sg16
(isrimulatorcore.utils.pose
Pose
p418
(dp419
g19
F0.7406007516895202
sg20
F-1.628718554925611
sg21
F-2.3638154470229775
sbsg22
(isrimulatorcore.utils.polygon
Polygon
p420
(dp421
g6
(lp422
(lp423
F-1.8952773018770401
aF-0.14070183141847648
aa(lp424
F-2.513981477797059
aF0.4875051848412568
aa(lp425
F-1.3621598079741817
aF1.621903334797517
aa(lp426
F-0.7434556320541625
aF0.9936963185377836
aasg12
((lp427
F-1.628718554925611
aF0.7406007516895202
aF0.9207322132787272
tp428
sbsg32
F0.8817249642483912
sba(isrimulatorcore.models.map.rectangle_obstacle
RectangleObstacle
p429
(dp430
g3
(isrimulatorcore.utils.polygon
Polygon
p431
(dp432
g6
(lp433
(lp434
F0.7657744804554368
aF0.1738594247545095
aa(lp435
F0.7657744804554368
aF-0.1738594247545095
aa(lp436
F-0.7657744804554368
aF-0.1738594247545095
aa(lp437
F-0.7657744804554368
aF0.1738594247545095
aasg12
((lp438
F0.0
aF0.0
aF0.7852627932690833
tp439
sbsg15
F1.5315489609108737
sg16
(isrimulatorcore.utils.pose
Pose
p440
(dp441
g19
F-0.44221332116001166
sg20
F3.9643871104704758
sg21
F-0.6701830911710349
sbsg22
(isrimulatorcore.utils.polygon
Polygon
p442
(dp443
g6
(lp444
(lp445
F4.672519878456229
aF-0.7816034173584696
aa(lp446
F4.4565414476826035
aF-1.0541134460628054
aa(lp447
F3.2562543424847226
aF-0.10282322496155366
aa(lp448
F3.4722327732583484
aF0.1696868037427821
aasg12
((lp449
F3.9643871104704758
aF-0.44221332116001166
aF0.7852627932690835
tp450
sbsg32
F0.347718849509019
sba(isrimulatorcore.models.map.rectangle_obstacle
RectangleObstacle
p451
(dp452
g3
(isrimulatorcore.utils.polygon
Polygon
p453
(dp454
g6
(lp455
(lp456
F0.42758030473909553
aF0.6663678800121392
aa(lp457
F0.42758030473909553
aF-0.6663678800121392
aa(lp458
F-0.42758030473909553
aF-0.6663678800121392
aa(lp459
F-0.42758030473909553
aF0.6663678800121392
aasg12
((lp460
F0.0
aF0.0
aF0.7917518983322052
tp461
sbsg15
F0.8551606094781911
sg16
(isrimulatorcore.utils.pose
Pose
p462
(dp463
g19
F4.6243723540296
sg20
F-0.0658774372855669
sg21
F-1.8121906019364713
sbsg22
(isrimulatorcore.utils.polygon
Polygon
p464
(dp465
g6
(lp466
(lp467
F0.47895357139534317
aF4.049889769008615
aa(lp468
F-0.815140325509598
aF4.368489191545559
aa(lp469
F-0.610708445966477
aF5.198854939050584
aa(lp470
F0.6833854509384641
aF4.88025551651364
aasg12
((lp471
F-0.06587743728556691
aF4.6243723540296
aF0.7917518983322053
tp472
sbsg32
F1.3327357600242784
sba(isrimulatorcore.models.map.rectangle_obstacle
RectangleObstacle
p473
(dp474
g3
(isrimulatorcore.utils.polygon
Polygon
p475
(dp476
g6
(lp477
(lp478
F0.5999926702400478
aF0.5975076008517716
aa(lp479
F0.5999926702400478
aF-0.5975076008517716
aa(lp480
F-0.5999926702400478
aF-0.5975076008517716
aa(lp481
F-0.5999926702400478
aF0.5975076008517716
aasg12
((lp482
F0.0
aF0.0
aF0.8467623854526267
tp483
sbsg15
F1.1999853404800955
sg16
(isrimulatorcore.utils.pose
Pose
p484
(dp485
g19
F2.687485356487265
sg20
F3.616467177965687
sg21
F1.0091748924182316
sbsg22
(isrimulatorcore.utils.polygon
Polygon
p486
(dp487
g6
(lp488
(lp489
F3.4302727550335357
aF3.513522991396466
aa(lp490
F4.441724914984055
aF2.8771065707770824
aa(lp491
F3.8026616008978387
aF1.8614477215780645
aa(lp492
F2.791209440947319
aF2.497864142197448
aasg12
((lp493
F3.6164671779656876
aF2.687485356487265
aF0.8467623854526273
tp494
sbsg32
F1.1950152017035431
sba(isrimulatorcore.models.map.rectangle_obstacle
RectangleObstacle
p495
(dp496
g3
(isrimulatorcore.utils.polygon
Polygon
p497
(dp498
g6
(lp499
(lp500
F0.40143275442537363
aF0.8980126304764969
aa(lp501
F0.40143275442537363
aF-0.8980126304764969
aa(lp502
F-0.40143275442537363
aF-0.8980126304764969
aa(lp503
F-0.40143275442537363
aF0.8980126304764969
aasg12
((lp504
F0.0
aF0.0
aF0.98365387246778
tp505
sbsg15
F0.8028655088507473
sg16
(isrimulatorcore.utils.pose
Pose
p506
(dp507
g19
F0.32248116007171257
sg20
F2.800353480184558
sg21
F-0.10420901635643487
sbsg22
(isrimulatorcore.utils.polygon
Polygon
p508
(dp509
g6
(lp510
(lp511
F3.2930202537993427
aF1.1738649695236296
aa(lp512
F3.10619679238485
aF-0.6124171280876007
aa(lp513
F2.3076867065697737
aF-0.5289026493802045
aa(lp514
F2.4945101679842665
aF1.2573794482310259
aasg12
((lp515
F2.800353480184558
aF0.32248116007171257
aF0.98365387246778
tp516
sbsg32
F1.7960252609529939
sba(isrimulatorcore.models.map.rectangle_obstacle
RectangleObstacle
p517
(dp518
g3
(isrimulatorcore.utils.polygon
Polygon
p519
(dp520
g6
(lp521
(lp522
F1.1778235843220177
aF0.1105927302557923
aa(lp523
F1.1778235843220177
aF-0.1105927302557923
aa(lp524
F-1.1778235843220177
aF-0.1105927302557923
aa(lp525
F-1.1778235843220177
aF0.1105927302557923
aasg12
((lp526
F0.0
aF0.0
aF1.1830042889907861
tp527
sbsg15
F2.3556471686440354
sg16
(isrimulatorcore.utils.pose
Pose
p528
(dp529
g19
F-1.023206333133563
sg20
F-3.1103344549321683
sg21
F-1.7133773530311955
sbsg22
(isrimulatorcore.utils.polygon
Polygon
p530
(dp531
g6
(lp532
(lp533
F-3.168230831587129
aF-2.204793044865217
aa(lp534
F-3.3871718201397156
aF-2.173362940294318
aa(lp535
F-3.052438078277208
aF0.15838037859809107
aa(lp536
F-2.833497089724621
aF0.12695027402719172
aasg12
((lp537
F-3.1103344549321683
aF-1.023206333133563
aF1.1830042889907864
tp538
sbsg32
F0.2211854605115846
sba(isrimulatorcore.models.map.rectangle_obstacle
RectangleObstacle
p539
(dp540
g3
(isrimulatorcore.utils.polygon
Polygon
p541
(dp542
g6
(lp543
(lp544
F0.5372052694891203
aF0.15800314716115899
aa(lp545
F0.5372052694891203
aF-0.15800314716115899
aa(lp546
F-0.5372052694891203
aF-0.15800314716115899
aa(lp547
F-0.5372052694891203
aF0.15800314716115899
aasg12
((lp548
F0.0
aF0.0
aF0.5599593700258164
tp549
sbsg15
F1.0744105389782406
sg16
(isrimulatorcore.utils.pose
Pose
p550
(dp551
g19
F0.6200849351008276
sg20
F-0.4070435627852984
sg21
F-1.0808376655331733
sbsg22
(isrimulatorcore.utils.polygon
Polygon
p552
(dp553
g6
(lp554
(lp555
F-0.014826007877025815
aF0.22043523135830584
aa(lp556
F-0.2936548925748559
aF0.0717260147324098
aa(lp557
F-0.799261117693571
aF1.0197346388433495
aa(lp558
F-0.5204322329957409
aF1.1684438554692456
aasg12
((lp559
F-0.4070435627852984
aF0.6200849351008277
aF0.5599593700258166
tp560
sbsg32
F0.31600629432231797
sba(isrimulatorcore.models.map.rectangle_obstacle
RectangleObstacle
p561
(dp562
g3
(isrimulatorcore.utils.polygon
Polygon
p563
(dp564
g6
(lp565
(lp566
F0.20929128686390075
aF0.3415377142075886
aa(lp567
F0.20929128686390075
aF-0.3415377142075886
aa(lp568
F-0.20929128686390075
aF-0.3415377142075886
aa(lp569
F-0.20929128686390075
aF0.3415377142075886
aasg12
((lp570
F0.0
aF0.0
aF0.4005631697788653
tp571
sbsg15
F0.4185825737278015
sg16
(isrimulatorcore.utils.pose
Pose
p572
(dp573
g19
F-2.560189861700533
sg20
F4.928306104018555
sg21
F-1.9553733763141354
sbsg22
(isrimulatorcore.utils.polygon
Polygon
p574
(dp575
g6
(lp576
(lp577
F5.166377736841253
aF-2.8823276437572587
aa(lp578
F4.533196055322175
aF-2.6260602070953785
aa(lp579
F4.690234471195857
aF-2.2380520796438073
aa(lp580
F5.323416152714935
aF-2.4943195163056875
aasg12
((lp581
F4.928306104018555
aF-2.560189861700533
aF0.40056316977886536
tp582
sbsg32
F0.6830754284151772
sba(isrimulatorcore.models.map.rectangle_obstacle
RectangleObstacle
p583
(dp584
g3
(isrimulatorcore.utils.polygon
Polygon
p585
(dp586
g6
(lp587
(lp588
F0.3899983322299615
aF0.19598463210280043
aa(lp589
F0.3899983322299615
aF-0.19598463210280043
aa(lp590
F-0.3899983322299615
aF-0.19598463210280043
aa(lp591
F-0.3899983322299615
aF0.19598463210280043
aasg12
((lp592
F0.0
aF0.0
aF0.43647299476900225
tp593
sbsg15
F0.779996664459923
sg16
(isrimulatorcore.utils.pose
Pose
p594
(dp595
g19
F-3.4014070672025762
sg20
F-0.7216920313682149
sg21
F1.0563740384565552
sbsg22
(isrimulatorcore.utils.polygon
Polygon
p596
(dp597
g6
(lp598
(lp599
F-0.7004201130188099
aF-2.965452733983651
aa(lp600
F-0.35918063978845827
aF-3.158314150527635
aa(lp601
F-0.7429639497176199
aF-3.8373614004215013
aa(lp602
F-1.0842034229479716
aF-3.6444999838775174
aasg12
((lp603
F-0.7216920313682149
aF-3.4014070672025762
aF0.43647299476900236
tp604
sbsg32
F0.39196926420560085
sba(isrimulatorcore.models.map.rectangle_obstacle
RectangleObstacle
p605
(dp606
g3
(isrimulatorcore.utils.polygon
Polygon
p607
(dp608
g6
(lp609
(lp610
F0.9826100798368673
aF0.13405375307235556
aa(lp611
F0.9826100798368673
aF-0.13405375307235556
aa(lp612
F-0.9826100798368673
aF-0.13405375307235556
aa(lp613
F-0.9826100798368673
aF0.13405375307235556
aasg12
((lp614
F0.0
aF0.0
aF0.9917121445811778
tp615
sbsg15
F1.9652201596737346
sg16
(isrimulatorcore.utils.pose
Pose
p616
(dp617
g19
F4.501147479981543
sg20
F2.4248126779875436
sg21
F-2.4499677359351546
sbsg22
(isrimulatorcore.utils.polygon
Polygon
p618
(dp619
g6
(lp620
(lp621
F1.7534939865960841
aF3.7711994049116395
aa(lp622
F1.5824978202050417
aF3.9776986686650564
aa(lp623
F3.096131369379003
aF5.231095555051446
aa(lp624
F3.2671275357700456
aF5.024596291298029
aasg12
((lp625
F2.4248126779875436
aF4.501147479981543
aF0.991712144581178
tp626
sbsg32
F0.2681075061447111
sba(isrimulatorcore.models.map.rectangle_obstacle
RectangleObstacle
p627
(dp628
g3
(isrimulatorcore.utils.polygon
Polygon
p629
(dp630
g6
(lp631
(lp632
F0.34790026886473163
aF0.5019864773636998
aa(lp633
F0.34790026886473163
aF-0.5019864773636998
aa(lp634
F-0.34790026886473163
aF-0.5019864773636998
aa(lp635
F-0.34790026886473163
aF0.5019864773636998
aasg12
((lp636
F0.0
aF0.0
aF0.6107577429162637
tp637
sbsg15
F0.6958005377294633
sg16
(isrimulatorcore.utils.pose
Pose
p638
(dp639
g19
F1.4251474342629076
sg20
F2.5974990118865473
sg21
F2.2953793353015133
sbsg22
(isrimulatorcore.utils.polygon
Polygon
p640
(dp641
g6
(lp642
(lp643
F1.991027253348972
aF1.3529184468097415
aa(lp644
F2.742777984737552
aF2.0183750807693106
aa(lp645
F3.2039707704241227
aF1.4973764217160737
aa(lp646
F2.4522200390355424
aF0.8319197877565045
aasg12
((lp647
F2.5974990118865473
aF1.4251474342629076
aF0.6107577429162637
tp648
sbsg32
F1.0039729547273997
sba.(lp0
F2.538524659892841
aF2.5075796637279018
a.