(lp0
(isrimulatorcore.models.map.rectangle_obstacle
RectangleObstacle
p1
(dp2
S'geometry'
p3
(isrimulatorcore.utils.polygon
Polygon
p4
(dp5
S'vertexes'
p6
(lp7
(lp8
F0.14402198316852877
aF0.8065709319304614
aa(lp9
F0.14402198316852877
aF-0.8065709319304614
aa(lp10
F-0.14402198316852877
aF-0.8065709319304614
aa(lp11
F-0.14402198316852877
aF0.8065709319304614
aasS'bounding_circle'
p12
((lp13
F0.0
aF0.0
aF0.8193283834159347
tp14
sbsS'width'
p15
F0.28804396633705753
sS'pose'
p16
(isrimulatorcore.utils.pose
Pose
p17
(dp18
S'y'
p19
F-4.6325844206944415
sS'x'
p20
F-3.295709043458766
sS'theta'
p21
F-0.06250758193091466
sbsS'global_geometry'
p22
(isrimulatorcore.utils.polygon
Polygon
p23
(dp24
g6
(lp25
(lp26
F-3.1015843562555077
aF-3.8365852965182867
aa(lp27
F-3.2023523035021477
aF-5.44657675418146
aa(lp28
F-3.489833730662024
aF-5.428583544870596
aa(lp29
F-3.389065783415384
aF-3.8185920872074233
aasg12
((lp30
F-3.295709043458766
aF-4.6325844206944415
aF0.8193283834159346
tp31
sbsS'height'
p32
F1.6131418638609227
sba(isrimulatorcore.models.map.rectangle_obstacle
RectangleObstacle
p33
(dp34
g3
(isrimulatorcore.utils.polygon
Polygon
p35
(dp36
g6
(lp37
(lp38
F0.2793632910970873
aF0.39919576912062704
aa(lp39
F0.2793632910970873
aF-0.39919576912062704
aa(lp40
F-0.2793632910970873
aF-0.39919576912062704
aa(lp41
F-0.2793632910970873
aF0.39919576912062704
aasg12
((lp42
F0.0
aF0.0
aF0.48723824818707007
tp43
sbsg15
F0.5587265821941746
sg16
(isrimulatorcore.utils.pose
Pose
p44
(dp45
g19
F0.19561663050435313
sg20
F-1.271854207974589
sg21
F-0.06948249939893181
sbsg22
(isrimulatorcore.utils.polygon
Polygon
p46
(dp47
g6
(lp48
(lp49
F-0.9654501962570978
aF0.5744539202473673
aa(lp50
F-1.0208798100205214
aF-0.22201114882551648
aa(lp51
F-1.57825821969208
aF-0.1832206592386611
aa(lp52
F-1.5228286059286564
aF0.6132444098342227
aasg12
((lp53
F-1.271854207974589
aF0.1956166305043531
aF0.4872382481870701
tp54
sbsg32
F0.7983915382412541
sba(isrimulatorcore.models.map.rectangle_obstacle
RectangleObstacle
p55
(dp56
g3
(isrimulatorcore.utils.polygon
Polygon
p57
(dp58
g6
(lp59
(lp60
F0.5402479910750483
aF0.1383839552155147
aa(lp61
F0.5402479910750483
aF-0.1383839552155147
aa(lp62
F-0.5402479910750483
aF-0.1383839552155147
aa(lp63
F-0.5402479910750483
aF0.1383839552155147
aasg12
((lp64
F0.0
aF0.0
aF0.5576898877707172
tp65
sbsg15
F1.0804959821500966
sg16
(isrimulatorcore.utils.pose
Pose
p66
(dp67
g19
F-1.5049982670352298
sg20
F4.368640494247643
sg21
F2.7623923862021265
sbsg22
(isrimulatorcore.utils.polygon
Polygon
p68
(dp69
g6
(lp70
(lp71
F3.815544543543901
aF-1.4335638199047371
aa(lp72
F3.9179978430611113
aF-1.1764572317697866
aa(lp73
F4.921736444951384
aF-1.5764327141657224
aa(lp74
F4.8192831454341745
aF-1.833539302300673
aasg12
((lp75
F4.368640494247643
aF-1.50499826703523
aF0.5576898877707174
tp76
sbsg32
F0.2767679104310294
sba(isrimulatorcore.models.map.rectangle_obstacle
RectangleObstacle
p77
(dp78
g3
(isrimulatorcore.utils.polygon
Polygon
p79
(dp80
g6
(lp81
(lp82
F0.12923333364036454
aF0.3200699525206606
aa(lp83
F0.12923333364036454
aF-0.3200699525206606
aa(lp84
F-0.12923333364036454
aF-0.3200699525206606
aa(lp85
F-0.12923333364036454
aF0.3200699525206606
aasg12
((lp86
F0.0
aF0.0
aF0.34517535982508907
tp87
sbsg15
F0.2584666672807291
sg16
(isrimulatorcore.utils.pose
Pose
p88
(dp89
g19
F-1.09200804915388
sg20
F-2.7065217282263627
sg21
F-0.7608983900569584
sbsg22
(isrimulatorcore.utils.polygon
Polygon
p90
(dp91
g6
(lp92
(lp93
F-2.3922173870092616
aF-0.9493237468551909
aa(lp94
F-2.833640167239861
aF-1.4129238192449605
aa(lp95
F-3.020826069443464
aF-1.234692351452569
aa(lp96
F-2.5794032892128644
aF-0.7710922790627994
aasg12
((lp97
F-2.7065217282263627
aF-1.09200804915388
aF0.34517535982508907
tp98
sbsg32
F0.6401399050413212
sba(isrimulatorcore.models.map.rectangle_obstacle
RectangleObstacle
p99
(dp100
g3
(isrimulatorcore.utils.polygon
Polygon
p101
(dp102
g6
(lp103
(lp104
F0.5293125447580931
aF0.2940390358840597
aa(lp105
F0.5293125447580931
aF-0.2940390358840597
aa(lp106
F-0.5293125447580931
aF-0.2940390358840597
aa(lp107
F-0.5293125447580931
aF0.2940390358840597
aasg12
((lp108
F0.0
aF0.0
aF0.6055003919585153
tp109
sbsg15
F1.0586250895161862
sg16
(isrimulatorcore.utils.pose
Pose
p110
(dp111
g19
F-5.837902327438186
sg20
F-1.319124734419946
sg21
F-2.8391277083448028
sbsg22
(isrimulatorcore.utils.polygon
Polygon
p112
(dp113
g6
(lp114
(lp115
F-1.7368225833060844
aF-6.2762620332709735
aa(lp116
F-1.9119958441425426
aF-5.714879679449239
aa(lp117
F-0.9014268855338076
aF-5.399542621605398
aa(lp118
F-0.7262536246973493
aF-5.960924975427132
aasg12
((lp119
F-1.3191247344199462
aF-5.837902327438186
aF0.6055003919585155
tp120
sbsg32
F0.5880780717681194
sba(isrimulatorcore.models.map.rectangle_obstacle
RectangleObstacle
p121
(dp122
g3
(isrimulatorcore.utils.polygon
Polygon
p123
(dp124
g6
(lp125
(lp126
F0.6971845369621834
aF0.41261495793749503
aa(lp127
F0.6971845369621834
aF-0.41261495793749503
aa(lp128
F-0.6971845369621834
aF-0.41261495793749503
aa(lp129
F-0.6971845369621834
aF0.41261495793749503
aasg12
((lp130
F0.0
aF0.0
aF0.8101341753641399
tp131
sbsg15
F1.3943690739243668
sg16
(isrimulatorcore.utils.pose
Pose
p132
(dp133
g19
F-0.9199481741326588
sg20
F4.565933493423875
sg21
F0.24066573852474038
sbsg22
(isrimulatorcore.utils.polygon
Polygon
p134
(dp135
g6
(lp136
(lp137
F5.144678373829469
aF-0.35305158259479263
aa(lp138
F5.341371289522929
aF-1.1544979694299
aa(lp139
F3.987188613018282
aF-1.486844765670525
aa(lp140
F3.790495697324822
aF-0.6853983788354177
aasg12
((lp141
F4.565933493423875
aF-0.9199481741326587
aF0.81013417536414
tp142
sbsg32
F0.8252299158749901
sba(isrimulatorcore.models.map.rectangle_obstacle
RectangleObstacle
p143
(dp144
g3
(isrimulatorcore.utils.polygon
Polygon
p145
(dp146
g6
(lp147
(lp148
F0.9450487311717298
aF0.22186466024206475
aa(lp149
F0.9450487311717298
aF-0.22186466024206475
aa(lp150
F-0.9450487311717298
aF-0.22186466024206475
aa(lp151
F-0.9450487311717298
aF0.22186466024206475
aasg12
((lp152
F0.0
aF0.0
aF0.9707425156825178
tp153
sbsg15
F1.8900974623434597
sg16
(isrimulatorcore.utils.pose
Pose
p154
(dp155
g19
F0.7629666444020329
sg20
F-0.6393689322569044
sg21
F1.1289255029466752
sbsg22
(isrimulatorcore.utils.polygon
Polygon
p156
(dp157
g6
(lp158
(lp159
F-0.4357917424576312
aF1.7121227746288012
aa(lp160
F-0.03468119321332008
aF1.5223702064189497
aa(lp161
F-0.8429461220561776
aF-0.1861894858247355
aa(lp162
F-1.2440566713004886
aF0.0035630823851160454
aasg12
((lp163
F-0.6393689322569044
aF0.7629666444020329
aF0.9707425156825178
tp164
sbsg32
F0.4437293204841295
sba(isrimulatorcore.models.map.rectangle_obstacle
RectangleObstacle
p165
(dp166
g3
(isrimulatorcore.utils.polygon
Polygon
p167
(dp168
g6
(lp169
(lp170
F0.3430925849648698
aF0.6908072051434008
aa(lp171
F0.3430925849648698
aF-0.6908072051434008
aa(lp172
F-0.3430925849648698
aF-0.6908072051434008
aa(lp173
F-0.3430925849648698
aF0.6908072051434008
aasg12
((lp174
F0.0
aF0.0
aF0.7713151862474334
tp175
sbsg15
F0.6861851699297395
sg16
(isrimulatorcore.utils.pose
Pose
p176
(dp177
g19
F5.442272607505186
sg20
F1.030453912800024
sg21
F2.1768086062837035
sbsg22
(isrimulatorcore.utils.polygon
Polygon
p178
(dp179
g6
(lp180
(lp181
F0.2672379476509099
aF5.33078939317487
aa(lp182
F1.402822656912388
aF6.11774920587414
aa(lp183
F1.7936698779491382
aF5.553755821835502
aa(lp184
F0.6580851686876601
aF4.766796009136232
aasg12
((lp185
F1.030453912800024
aF5.442272607505186
aF0.7713151862474334
tp186
sbsg32
F1.3816144102868015
sba(isrimulatorcore.models.map.rectangle_obstacle
RectangleObstacle
p187
(dp188
g3
(isrimulatorcore.utils.polygon
Polygon
p189
(dp190
g6
(lp191
(lp192
F0.5874528109963795
aF0.20910740477666
aa(lp193
F0.5874528109963795
aF-0.20910740477666
aa(lp194
F-0.5874528109963795
aF-0.20910740477666
aa(lp195
F-0.5874528109963795
aF0.20910740477666
aasg12
((lp196
F0.0
aF0.0
aF0.6235597099556528
tp197
sbsg15
F1.174905621992759
sg16
(isrimulatorcore.utils.pose
Pose
p198
(dp199
g19
F0.829146027080684
sg20
F1.6941475778672646
sg21
F0.2045415808877111
sbsg22
(isrimulatorcore.utils.polygon
Polygon
p200
(dp201
g6
(lp202
(lp203
F2.226880921083926
aF1.1532168478979503
aa(lp204
F2.3118280098732753
aF0.7437200603208874
aa(lp205
F1.1614142346506031
aF0.5050752062634176
aa(lp206
F1.0764671458612538
aF0.9145719938404805
aasg12
((lp207
F1.6941475778672646
aF0.829146027080684
aF0.6235597099556529
tp208
sbsg32
F0.41821480955332
sba(isrimulatorcore.models.map.rectangle_obstacle
RectangleObstacle
p209
(dp210
g3
(isrimulatorcore.utils.polygon
Polygon
p211
(dp212
g6
(lp213
(lp214
F0.4240954422190626
aF0.499404952221681
aa(lp215
F0.4240954422190626
aF-0.499404952221681
aa(lp216
F-0.4240954422190626
aF-0.499404952221681
aa(lp217
F-0.4240954422190626
aF0.499404952221681
aasg12
((lp218
F0.0
aF0.0
aF0.6551810821555533
tp219
sbsg15
F0.8481908844381252
sg16
(isrimulatorcore.utils.pose
Pose
p220
(dp221
g19
F0.7125304176312961
sg20
F-1.179036848940969
sg21
F1.863624888193936
sbsg22
(isrimulatorcore.utils.polygon
Polygon
p222
(dp223
g6
(lp224
(lp225
F-1.7796027754232504
aF0.9744136327539933
aa(lp226
F-0.8233110002233925
aF1.2627316271616658
aa(lp227
F-0.5784709224586877
aF0.4506472025085989
aa(lp228
F-1.5347626976585456
aF0.16232920810092655
aasg12
((lp229
F-1.179036848940969
aF0.7125304176312961
aF0.6551810821555533
tp230
sbsg32
F0.998809904443362
sba(isrimulatorcore.models.map.rectangle_obstacle
RectangleObstacle
p231
(dp232
g3
(isrimulatorcore.utils.polygon
Polygon
p233
(dp234
g6
(lp235
(lp236
F1.2466861520166226
aF0.05128040229702768
aa(lp237
F1.2466861520166226
aF-0.05128040229702768
aa(lp238
F-1.2466861520166226
aF-0.05128040229702768
aa(lp239
F-1.2466861520166226
aF0.05128040229702768
aasg12
((lp240
F0.0
aF0.0
aF1.2477403741523148
tp241
sbsg15
F2.493372304033245
sg16
(isrimulatorcore.utils.pose
Pose
p242
(dp243
g19
F-2.9422044582257976
sg20
F3.4479808081157515
sg21
F-0.35102867366041846
sbsg22
(isrimulatorcore.utils.polygon
Polygon
p244
(dp245
g6
(lp246
(lp247
F4.636276878596985
aF-3.3227415657049737
aa(lp248
F4.601009916872496
aF-3.419048159714436
aa(lp249
F2.259684737634518
aF-2.5616673507466214
aa(lp250
F2.294951699359007
aF-2.465360756737159
aasg12
((lp251
F3.4479808081157515
aF-2.9422044582257976
aF1.247740374152315
tp252
sbsg32
F0.10256080459405537
sba.(lp0
F-3.4543708515010705
aF1.7488338675947344
a.